   1              		.cpu arm7tdmi
   2              		.fpu softvfp
   3              		.eabi_attribute 20, 1
   4              		.eabi_attribute 21, 1
   5              		.eabi_attribute 23, 3
   6              		.eabi_attribute 24, 1
   7              		.eabi_attribute 25, 1
   8              		.eabi_attribute 26, 1
   9              		.eabi_attribute 30, 4
  10              		.eabi_attribute 34, 0
  11              		.eabi_attribute 18, 4
  12              		.file	"main.c"
  13              		.text
  14              	.Ltext0:
  15              		.cfi_sections	.debug_frame
  16              		.section	.text.fb_boxto,"ax",%progbits
  17              		.align	2
  19              	fb_boxto:
  20              	.LFB67:
  21              		.file 1 "include/fb/framebuffer.h"
   1:include/fb/framebuffer.h **** #ifndef _FB_FRAMEBUFFER_H
   2:include/fb/framebuffer.h **** #define _FB_FRAMEBUFFER_H
   3:include/fb/framebuffer.h **** 
   4:include/fb/framebuffer.h **** #include <fb/font.h>
   5:include/fb/framebuffer.h **** #include <stdint.h>
   6:include/fb/framebuffer.h **** 
   7:include/fb/framebuffer.h **** /* color is encoded as <special><red><green><blue> */
   8:include/fb/framebuffer.h **** /* if a color is "special", then the RGB components most likely
   9:include/fb/framebuffer.h ****    don't make sense. Use "special" colours when you have to
  10:include/fb/framebuffer.h ****    mask out bits with transparency or you have to encode
  11:include/fb/framebuffer.h ****    colours in a fixed color palette... */
  12:include/fb/framebuffer.h **** 
  13:include/fb/framebuffer.h **** #define FB_COLOR_WHITE		0x00ffffffU
  14:include/fb/framebuffer.h **** #define FB_COLOR_BLACK		0x00000000U
  15:include/fb/framebuffer.h **** #define FB_COLOR_TRANSP		0x01ffffffU
  16:include/fb/framebuffer.h **** 
  17:include/fb/framebuffer.h **** #define FB_COLOR_RGB(r,g,b) ((((r) & 0xff)<<16)|(((g)&0xff)<<8)|((b)&0xff))
  18:include/fb/framebuffer.h **** #define FB_COLOR_RED		FB_COLOR_RGB(0xff,0x00,0x00)
  19:include/fb/framebuffer.h **** #define FB_COLOR_GREEN		FB_COLOR_RGB(0x00,0xff,0x00)
  20:include/fb/framebuffer.h **** #define FB_COLOR_BLUE		FB_COLOR_RGB(0x00,0x00,0xff)
  21:include/fb/framebuffer.h **** 
  22:include/fb/framebuffer.h **** /* encode */
  23:include/fb/framebuffer.h **** 
  24:include/fb/framebuffer.h **** /* decode */
  25:include/fb/framebuffer.h **** #define FB_COLOR_IS_SPECIAL(v)     (!!((v) & 0xff000000U))
  26:include/fb/framebuffer.h **** #define FB_COLOR_TO_R(v)		(((v)>>16) & 0xff)
  27:include/fb/framebuffer.h **** #define FB_COLOR_TO_G(v)		(((v)>> 8) & 0xff)
  28:include/fb/framebuffer.h **** #define FB_COLOR_TO_B(v)		( (v)      & 0xff)
  29:include/fb/framebuffer.h **** 
  30:include/fb/framebuffer.h **** struct framebuffer {
  31:include/fb/framebuffer.h **** 	char name[8];				// keep it short!
  32:include/fb/framebuffer.h **** 	void (*init)();				// (re)initialize
  33:include/fb/framebuffer.h **** 	void (*clear)();			// clear display
  34:include/fb/framebuffer.h **** 	void (*boxto)(uint16_t x,uint16_t y);	// draw box to xy
  35:include/fb/framebuffer.h **** 	void (*lineto)(uint16_t x,uint16_t y);	// draw line to xy
  36:include/fb/framebuffer.h **** 	int (*putstr)(char *c,int maxwidth);	// put text in current font to fb
  37:include/fb/framebuffer.h **** 	void (*flush)();			// flush changes
  38:include/fb/framebuffer.h **** 
  39:include/fb/framebuffer.h **** 	uint16_t width,height;			// width/height of fb
  40:include/fb/framebuffer.h **** 	uint16_t cursor_x,cursor_y;		// current cursor
  41:include/fb/framebuffer.h **** 	uint32_t fg_color,bg_color;		// current fg/bg color
  42:include/fb/framebuffer.h **** 	enum fb_font_id font;			// current font
  43:include/fb/framebuffer.h **** };
  44:include/fb/framebuffer.h **** 
  45:include/fb/framebuffer.h **** /* there is a single framebuffer, the specific driver defines
  46:include/fb/framebuffer.h ****    the "framebuffer" symbol */
  47:include/fb/framebuffer.h **** extern struct framebuffer *framebuffer;
  48:include/fb/framebuffer.h **** 
  49:include/fb/framebuffer.h **** static inline void
  50:include/fb/framebuffer.h **** fb_init(){
  51:include/fb/framebuffer.h **** 	framebuffer->init();
  52:include/fb/framebuffer.h **** }
  53:include/fb/framebuffer.h **** 
  54:include/fb/framebuffer.h **** static inline void
  55:include/fb/framebuffer.h **** fb_clear(){
  56:include/fb/framebuffer.h **** 	framebuffer->clear();
  57:include/fb/framebuffer.h **** }
  58:include/fb/framebuffer.h **** 
  59:include/fb/framebuffer.h **** static inline void
  60:include/fb/framebuffer.h **** fb_boxto(uint16_t x,uint16_t y){
  22              		.loc 1 60 0
  23              		.cfi_startproc
  24              		@ Function supports interworking.
  25              		@ args = 0, pretend = 0, frame = 0
  26              		@ frame_needed = 0, uses_anonymous_args = 0
  27              	.LVL0:
  28 0000 08402DE9 		stmfd	sp!, {r3, lr}
  29              	.LCFI0:
  30              		.cfi_def_cfa_offset 8
  31              		.cfi_offset 3, -8
  32              		.cfi_offset 14, -4
  61:include/fb/framebuffer.h **** 	framebuffer->boxto(x,y);
  33              		.loc 1 61 0
  34 0004 14309FE5 		ldr	r3, .L2
  35 0008 003093E5 		ldr	r3, [r3]
  36 000c 10C093E5 		ldr	ip, [r3, #16]
  37 0010 0FE0A0E1 		mov	lr, pc
  38 0014 1CFF2FE1 		bx	ip
  39              	.LVL1:
  62:include/fb/framebuffer.h **** }
  40              		.loc 1 62 0
  41 0018 0840BDE8 		ldmfd	sp!, {r3, lr}
  42 001c 1EFF2FE1 		bx	lr
  43              	.L3:
  44              		.align	2
  45              	.L2:
  46 0020 00000000 		.word	framebuffer
  47              		.cfi_endproc
  48              	.LFE67:
  50              		.section	.text.fb_putstr,"ax",%progbits
  51              		.align	2
  53              	fb_putstr:
  54              	.LFB69:
  63:include/fb/framebuffer.h **** 
  64:include/fb/framebuffer.h **** static inline void
  65:include/fb/framebuffer.h **** fb_lineto(uint16_t x,uint16_t y){
  66:include/fb/framebuffer.h **** 	framebuffer->lineto(x,y);
  67:include/fb/framebuffer.h **** }
  68:include/fb/framebuffer.h **** 
  69:include/fb/framebuffer.h **** static inline int
  70:include/fb/framebuffer.h **** fb_putstr(char *str,int maxwidth){
  55              		.loc 1 70 0
  56              		.cfi_startproc
  57              		@ Function supports interworking.
  58              		@ args = 0, pretend = 0, frame = 0
  59              		@ frame_needed = 0, uses_anonymous_args = 0
  60              	.LVL2:
  61 0000 08402DE9 		stmfd	sp!, {r3, lr}
  62              	.LCFI1:
  63              		.cfi_def_cfa_offset 8
  64              		.cfi_offset 3, -8
  65              		.cfi_offset 14, -4
  71:include/fb/framebuffer.h **** 	return framebuffer->putstr(str,maxwidth);
  66              		.loc 1 71 0
  67 0004 14309FE5 		ldr	r3, .L5
  68 0008 003093E5 		ldr	r3, [r3]
  69 000c 18C093E5 		ldr	ip, [r3, #24]
  70 0010 0FE0A0E1 		mov	lr, pc
  71 0014 1CFF2FE1 		bx	ip
  72              	.LVL3:
  72:include/fb/framebuffer.h **** }
  73              		.loc 1 72 0
  74 0018 0840BDE8 		ldmfd	sp!, {r3, lr}
  75 001c 1EFF2FE1 		bx	lr
  76              	.L6:
  77              		.align	2
  78              	.L5:
  79 0020 00000000 		.word	framebuffer
  80              		.cfi_endproc
  81              	.LFE69:
  83              		.section	.text.print_display,"ax",%progbits
  84              		.align	2
  86              	print_display:
  87              	.LFB109:
  88              		.file 2 "apps/rssi/main.c"
   1:apps/rssi/main.c **** /* Cell Monitor of Free Software for Calypso Phone */
   2:apps/rssi/main.c **** 
   3:apps/rssi/main.c **** /* (C) 2012 by Andreas Eversberg <jolly@eversberg.eu>
   4:apps/rssi/main.c ****  *
   5:apps/rssi/main.c ****  * All Rights Reserved
   6:apps/rssi/main.c ****  *
   7:apps/rssi/main.c ****  * This program is free software; you can redistribute it and/or modify
   8:apps/rssi/main.c ****  * it under the terms of the GNU General Public License as published by
   9:apps/rssi/main.c ****  * the Free Software Foundation; either version 2 of the License, or
  10:apps/rssi/main.c ****  * (at your option) any later version.
  11:apps/rssi/main.c ****  *
  12:apps/rssi/main.c ****  * This program is distributed in the hope that it will be useful,
  13:apps/rssi/main.c ****  * but WITHOUT ANY WARRANTY; without even the implied warranty of
  14:apps/rssi/main.c ****  * MERCHANTABILITY or FITNESS FOR A PARTICULAR PURPOSE.  See the
  15:apps/rssi/main.c ****  * GNU General Public License for more details.
  16:apps/rssi/main.c ****  *
  17:apps/rssi/main.c ****  * You should have received a copy of the GNU General Public License along
  18:apps/rssi/main.c ****  * with this program; if not, write to the Free Software Foundation, Inc.,
  19:apps/rssi/main.c ****  * 51 Franklin Street, Fifth Floor, Boston, MA 02110-1301 USA.
  20:apps/rssi/main.c ****  *
  21:apps/rssi/main.c ****  */
  22:apps/rssi/main.c **** 
  23:apps/rssi/main.c **** #include <stdint.h>
  24:apps/rssi/main.c **** #include <stdio.h>
  25:apps/rssi/main.c **** #include <string.h>
  26:apps/rssi/main.c **** #include <errno.h>
  27:apps/rssi/main.c **** 
  28:apps/rssi/main.c **** #include <debug.h>
  29:apps/rssi/main.c **** #include <memory.h>
  30:apps/rssi/main.c **** #include <delay.h>
  31:apps/rssi/main.c **** #include <byteorder.h>
  32:apps/rssi/main.c **** #include <rffe.h>
  33:apps/rssi/main.c **** #include <keypad.h>
  34:apps/rssi/main.c **** #include <board.h>
  35:apps/rssi/main.c **** #include <abb/twl3025.h>
  36:apps/rssi/main.c **** #include <rf/trf6151.h>
  37:apps/rssi/main.c **** #include <calypso/clock.h>
  38:apps/rssi/main.c **** #include <calypso/tpu.h>
  39:apps/rssi/main.c **** #include <calypso/tsp.h>
  40:apps/rssi/main.c **** #include <calypso/dsp.h>
  41:apps/rssi/main.c **** #include <calypso/irq.h>
  42:apps/rssi/main.c **** #include <calypso/misc.h>
  43:apps/rssi/main.c **** #include <calypso/buzzer.h>
  44:apps/rssi/main.c **** #include <comm/sercomm.h>
  45:apps/rssi/main.c **** #include <comm/timer.h>
  46:apps/rssi/main.c **** #include <fb/framebuffer.h>
  47:apps/rssi/main.c **** #include <layer1/sync.h>
  48:apps/rssi/main.c **** #include <layer1/async.h>
  49:apps/rssi/main.c **** #include <layer1/l23_api.h>
  50:apps/rssi/main.c **** #include <osmocom/gsm/rsl.h>
  51:apps/rssi/main.c **** #include <osmocom/gsm/protocol/gsm_04_08.h>
  52:apps/rssi/main.c **** #include <osmocom/gsm/gsm48_ie.h>
  53:apps/rssi/main.c **** #include <battery/battery.h>
  54:apps/rssi/main.c **** 
  55:apps/rssi/main.c **** enum key_codes key_code = KEY_INV;
  56:apps/rssi/main.c **** int key_pressed = 0;
  57:apps/rssi/main.c **** enum key_codes key_pressed_code;
  58:apps/rssi/main.c **** unsigned long key_pressed_when;
  59:apps/rssi/main.c **** unsigned int key_pressed_delay;
  60:apps/rssi/main.c **** 
  61:apps/rssi/main.c **** enum mode {
  62:apps/rssi/main.c **** 	MODE_MAIN,
  63:apps/rssi/main.c **** 	MODE_SPECTRUM,
  64:apps/rssi/main.c **** 	MODE_ARFCN,
  65:apps/rssi/main.c **** 	MODE_SYNC,
  66:apps/rssi/main.c **** 	MODE_RACH,
  67:apps/rssi/main.c **** } mode = MODE_MAIN;
  68:apps/rssi/main.c **** enum mode last_mode; /* where to return after entering ARFCN */
  69:apps/rssi/main.c **** 
  70:apps/rssi/main.c **** static uint16_t arfcn = 0, ul_arfcn;
  71:apps/rssi/main.c **** int pcs = 0;
  72:apps/rssi/main.c **** int uplink = 0;
  73:apps/rssi/main.c **** int max = 0;
  74:apps/rssi/main.c **** uint8_t power, max_power;
  75:apps/rssi/main.c **** char input[5];
  76:apps/rssi/main.c **** int cursor;
  77:apps/rssi/main.c **** 
  78:apps/rssi/main.c **** char *sync_result = NULL;
  79:apps/rssi/main.c **** char *sync_msg = "";
  80:apps/rssi/main.c **** 
  81:apps/rssi/main.c **** static struct band {
  82:apps/rssi/main.c **** 	int min, max, prev, next, freq_ul, freq_dl;
  83:apps/rssi/main.c **** } bands[] = {
  84:apps/rssi/main.c ****         { 128, 251, 124, 512, 8242, 8692 }, /* GSM 850 */
  85:apps/rssi/main.c ****         { 955, 124, 885, 128, 8762, 9212 }, /* P,E,R GSM */
  86:apps/rssi/main.c ****         { 512, 885, 251, 955, 17102, 18052 }, /* DCS 1800 */
  87:apps/rssi/main.c **** 	{ 0, 0, 0, 0, 0, 0},
  88:apps/rssi/main.c **** };
  89:apps/rssi/main.c **** 
  90:apps/rssi/main.c **** struct band *band;
  91:apps/rssi/main.c **** 
  92:apps/rssi/main.c **** #define PCS_MIN 512
  93:apps/rssi/main.c **** #define PCS_MAX 810
  94:apps/rssi/main.c **** #define DCS_MIN 512
  95:apps/rssi/main.c **** #define DCS_MAX 885
  96:apps/rssi/main.c **** #define PCS_UL 18502
  97:apps/rssi/main.c **** #define PCS_DL 19302
  98:apps/rssi/main.c **** 
  99:apps/rssi/main.c **** enum pm_mode {
 100:apps/rssi/main.c **** 	PM_IDLE,
 101:apps/rssi/main.c **** 	PM_SENT,
 102:apps/rssi/main.c **** 	PM_RANGE_SENT,
 103:apps/rssi/main.c **** 	PM_RANGE_RESULT,
 104:apps/rssi/main.c **** 	PM_RESULT,
 105:apps/rssi/main.c **** } pm_mode = PM_IDLE;
 106:apps/rssi/main.c **** 
 107:apps/rssi/main.c **** #define NUM_PM_DL 2
 108:apps/rssi/main.c **** #define NUM_PM_UL 10
 109:apps/rssi/main.c **** int pm_meas[NUM_PM_UL];
 110:apps/rssi/main.c **** int pm_count = 0;
 111:apps/rssi/main.c **** int pm_max = 2;
 112:apps/rssi/main.c **** uint8_t pm_spectrum[1024];
 113:apps/rssi/main.c **** int pm_scale = 1; /* scale measured power level */
 114:apps/rssi/main.c **** 
 115:apps/rssi/main.c **** #define TONE_JIFFIES ((HZ < 25) ? 1 : HZ / 25)
 116:apps/rssi/main.c **** int tone = 0;
 117:apps/rssi/main.c **** unsigned long tone_time;
 118:apps/rssi/main.c **** int tone_on = 0;
 119:apps/rssi/main.c **** 
 120:apps/rssi/main.c **** uint8_t bsic;
 121:apps/rssi/main.c **** uint8_t ul_levels[8], ul_max[8]; /* 8 uplink levels */
 122:apps/rssi/main.c **** uint8_t si_1[23];
 123:apps/rssi/main.c **** uint8_t si_2[23];
 124:apps/rssi/main.c **** uint8_t si_2bis[23];
 125:apps/rssi/main.c **** uint8_t si_2ter[23];
 126:apps/rssi/main.c **** uint8_t si_3[23];
 127:apps/rssi/main.c **** uint8_t si_4[23];
 128:apps/rssi/main.c **** uint16_t si_new = 0, ul_new;
 129:apps/rssi/main.c **** uint16_t mcc, mnc, lac, cell_id;
 130:apps/rssi/main.c **** int ccch_conf;
 131:apps/rssi/main.c **** int nb_num;
 132:apps/rssi/main.c **** struct gsm_sysinfo_freq freq[1024];
 133:apps/rssi/main.c **** #define NEIGH_LINES	((framebuffer->height - 25) / 8)
 134:apps/rssi/main.c **** 
 135:apps/rssi/main.c **** #define FREQ_TYPE_SERV		0x01 /* frequency of the serving cell */
 136:apps/rssi/main.c **** #define FREQ_TYPE_NCELL		0x1c /* frequency of the neighbor cell */
 137:apps/rssi/main.c **** #define FREQ_TYPE_NCELL_2	0x04 /* sub channel of SI 2 */
 138:apps/rssi/main.c **** #define FREQ_TYPE_NCELL_2bis	0x08 /* sub channel of SI 2bis */
 139:apps/rssi/main.c **** #define FREQ_TYPE_NCELL_2ter	0x10 /* sub channel of SI 2ter */
 140:apps/rssi/main.c **** 
 141:apps/rssi/main.c **** int rach = 0;
 142:apps/rssi/main.c **** struct gsm48_req_ref rach_ref;
 143:apps/rssi/main.c **** uint8_t rach_ra;
 144:apps/rssi/main.c **** unsigned long rach_when;
 145:apps/rssi/main.c **** uint8_t ta;
 146:apps/rssi/main.c **** 
 147:apps/rssi/main.c **** enum assign {
 148:apps/rssi/main.c **** 	ASSIGN_NONE,
 149:apps/rssi/main.c **** 	ASSIGN_NO_TX,
 150:apps/rssi/main.c **** 	ASSIGN_RESULT,
 151:apps/rssi/main.c **** 	ASSIGN_REJECT,
 152:apps/rssi/main.c **** 	ASSIGN_TIMEOUT,
 153:apps/rssi/main.c **** } assign;
 154:apps/rssi/main.c **** 
 155:apps/rssi/main.c **** /* UI */
 156:apps/rssi/main.c **** 
 157:apps/rssi/main.c **** static void print_display(char *text, int *y, int c)
 158:apps/rssi/main.c **** {
  89              		.loc 2 158 0
  90              		.cfi_startproc
  91              		@ Function supports interworking.
  92              		@ args = 0, pretend = 0, frame = 0
  93              		@ frame_needed = 0, uses_anonymous_args = 0
  94              		@ link register save eliminated.
  95              	.LVL4:
 159:apps/rssi/main.c **** 	/* skip lines, given by cursor */
 160:apps/rssi/main.c **** 	(*y)++;
  96              		.loc 2 160 0
  97 0000 00C091E5 		ldr	ip, [r1]
  98 0004 01C08CE2 		add	ip, ip, #1
 161:apps/rssi/main.c **** 	if (c >= (*y))
  99              		.loc 2 161 0
 100 0008 0C0052E1 		cmp	r2, ip
 158:apps/rssi/main.c **** {
 101              		.loc 2 158 0
 102 000c 30002DE9 		stmfd	sp!, {r4, r5}
 103              	.LCFI2:
 104              		.cfi_def_cfa_offset 8
 105              		.cfi_offset 4, -8
 106              		.cfi_offset 5, -4
 160:apps/rssi/main.c **** 	(*y)++;
 107              		.loc 2 160 0
 108 0010 00C081E5 		str	ip, [r1]
 109              		.loc 2 161 0
 110 0014 130000AA 		bge	.L7
 162:apps/rssi/main.c **** 		return;
 163:apps/rssi/main.c **** 	/* skip, if end of display area is reached */
 164:apps/rssi/main.c **** 	if ((*y) - c > NEIGH_LINES)
 111              		.loc 2 164 0
 112 0018 50309FE5 		ldr	r3, .L10
 113 001c 003093E5 		ldr	r3, [r3]
 114 0020 B212D3E1 		ldrh	r1, [r3, #34]
 115              	.LVL5:
 116 0024 191041E2 		sub	r1, r1, #25
 117 0028 000051E3 		cmp	r1, #0
 118 002c 075081E2 		add	r5, r1, #7
 119 0030 0C4062E0 		rsb	r4, r2, ip
 120 0034 0510A0B1 		movlt	r1, r5
 121 0038 C10154E1 		cmp	r4, r1, asr #3
 122 003c 090000CA 		bgt	.L7
 123              	.LVL6:
 165:apps/rssi/main.c **** 		return;
 166:apps/rssi/main.c **** 
 167:apps/rssi/main.c **** 	fb_gotoxy(0, 20 + (((*y) - c - 1) << 3));
 124              		.loc 2 167 0
 125 0040 0220E0E1 		mvn	r2, r2
 126              	.LVL7:
 127 0044 0CC082E0 		add	ip, r2, ip
 128              	.LVL8:
 129 0048 8CC1A0E1 		mov	ip, ip, asl #3
 130              	.LBB186:
 131              	.LBB187:
  73:include/fb/framebuffer.h **** 
  74:include/fb/framebuffer.h **** static inline void
  75:include/fb/framebuffer.h **** fb_flush(){
  76:include/fb/framebuffer.h **** 	framebuffer->flush();
  77:include/fb/framebuffer.h **** }
  78:include/fb/framebuffer.h **** 
  79:include/fb/framebuffer.h **** static inline void
  80:include/fb/framebuffer.h **** fb_gotoxy(uint16_t x,uint16_t y){
  81:include/fb/framebuffer.h **** 	framebuffer->cursor_x = x;
 132              		.loc 1 81 0
 133 004c 0010A0E3 		mov	r1, #0
 134              	.LBE187:
 135              	.LBE186:
 136              		.loc 2 167 0
 137 0050 14C08CE2 		add	ip, ip, #20
 138              	.LBB189:
 139              	.LBB188:
 140              		.loc 1 81 0
 141 0054 B412C3E1 		strh	r1, [r3, #36]	@ movhi
  82:include/fb/framebuffer.h **** 	framebuffer->cursor_y = y;
 142              		.loc 1 82 0
 143 0058 B6C2C3E1 		strh	ip, [r3, #38]	@ movhi
 144              	.LBE188:
 145              	.LBE189:
 168:apps/rssi/main.c **** 	fb_putstr(text, framebuffer->width);
 146              		.loc 2 168 0
 147 005c B012D3E1 		ldrh	r1, [r3, #32]
 169:apps/rssi/main.c **** }
 148              		.loc 2 169 0
 149 0060 3000BDE8 		ldmfd	sp!, {r4, r5}
 168:apps/rssi/main.c **** 	fb_putstr(text, framebuffer->width);
 150              		.loc 2 168 0
 151 0064 FEFFFFEA 		b	fb_putstr
 152              	.LVL9:
 153              	.L7:
 154              		.loc 2 169 0
 155 0068 3000BDE8 		ldmfd	sp!, {r4, r5}
 156 006c 1EFF2FE1 		bx	lr
 157              	.L11:
 158              		.align	2
 159              	.L10:
 160 0070 00000000 		.word	framebuffer
 161              		.cfi_endproc
 162              	.LFE109:
 164              		.section	.text.gsm48_match_ra,"ax",%progbits
 165              		.align	2
 167              	gsm48_match_ra:
 168              	.LFB133:
 170:apps/rssi/main.c **** 
 171:apps/rssi/main.c **** static void refresh_display(void)
 172:apps/rssi/main.c **** {
 173:apps/rssi/main.c **** 	char text[16];
 174:apps/rssi/main.c **** 	int bat = battery_info.battery_percent;
 175:apps/rssi/main.c **** 
 176:apps/rssi/main.c **** 	fb_clear();
 177:apps/rssi/main.c **** 
 178:apps/rssi/main.c **** 	/* header */
 179:apps/rssi/main.c **** 	fb_setbg(FB_COLOR_WHITE);
 180:apps/rssi/main.c **** 	if (mode != MODE_SPECTRUM && !(mode == MODE_SYNC && cursor < 0)) {
 181:apps/rssi/main.c **** 		fb_setfg(FB_COLOR_BLUE);
 182:apps/rssi/main.c **** 		fb_setfont(FB_FONT_HELVR08);
 183:apps/rssi/main.c **** 		fb_gotoxy(0, 7);
 184:apps/rssi/main.c **** 		fb_putstr("vadimbetman RSSI", -1);
 185:apps/rssi/main.c **** 		fb_setfg(FB_COLOR_RGB(0xc0, 0xc0, 0x00));
 186:apps/rssi/main.c **** 		fb_setfont(FB_FONT_SYMBOLS);
 187:apps/rssi/main.c **** 		fb_gotoxy(framebuffer->width - 15, 8);
 188:apps/rssi/main.c **** 		if (bat >= 100 && (battery_info.flags & BATTERY_CHG_ENABLED)
 189:apps/rssi/main.c **** 		 && !(battery_info.flags & BATTERY_CHARGING))
 190:apps/rssi/main.c **** 			fb_putstr("@HHBC", framebuffer->width);
 191:apps/rssi/main.c **** 		else {
 192:apps/rssi/main.c **** 			sprintf(text, "@%c%c%cC", (bat >= 30) ? 'B':'A',
 193:apps/rssi/main.c **** 				(bat >= 60) ? 'B':'A', (bat >= 90) ? 'B':'A');
 194:apps/rssi/main.c **** 			fb_putstr(text, framebuffer->width);
 195:apps/rssi/main.c **** 		}
 196:apps/rssi/main.c **** 		fb_gotoxy(0, 8);
 197:apps/rssi/main.c **** 		sprintf(text, "%c%cE%c%c", (power >= 40) ? 'D':'G',
 198:apps/rssi/main.c **** 			(power >= 10) ? 'D':'G', (power >= 10) ? 'F':'G',
 199:apps/rssi/main.c **** 			(power >= 40) ? 'F':'G');
 200:apps/rssi/main.c **** 		fb_putstr(text, framebuffer->width);
 201:apps/rssi/main.c **** 		fb_setfg(FB_COLOR_GREEN);
 202:apps/rssi/main.c **** 		fb_gotoxy(0, 10);
 203:apps/rssi/main.c **** 		fb_boxto(framebuffer->width - 1, 10);
 204:apps/rssi/main.c **** 	}
 205:apps/rssi/main.c **** 	fb_setfg(FB_COLOR_BLACK);
 206:apps/rssi/main.c **** 	fb_setfont(FB_FONT_C64);
 207:apps/rssi/main.c **** 
 208:apps/rssi/main.c **** 	/* RACH */
 209:apps/rssi/main.c **** 	if (mode == MODE_RACH) {
 210:apps/rssi/main.c **** 		unsigned long elapsed = jiffies - rach_when;
 211:apps/rssi/main.c **** 
 212:apps/rssi/main.c **** 		fb_gotoxy(0,28);
 213:apps/rssi/main.c **** 		switch (assign) {
 214:apps/rssi/main.c **** 		case ASSIGN_NONE:
 215:apps/rssi/main.c **** 			fb_putstr("Rach sent...", -1);
 216:apps/rssi/main.c **** 			break;
 217:apps/rssi/main.c **** 		case ASSIGN_RESULT:
 218:apps/rssi/main.c **** 			sprintf(text, "TA = %d", ta);
 219:apps/rssi/main.c **** 			fb_putstr(text, -1);
 220:apps/rssi/main.c **** 			fb_gotoxy(0,36);
 221:apps/rssi/main.c **** 			sprintf(text, "(%dm)", ta * 554);
 222:apps/rssi/main.c **** 			fb_putstr(text, -1);
 223:apps/rssi/main.c **** 			break;
 224:apps/rssi/main.c **** 		case ASSIGN_REJECT:
 225:apps/rssi/main.c **** 			fb_putstr("Rejected!", -1);
 226:apps/rssi/main.c **** 			break;
 227:apps/rssi/main.c **** 		case ASSIGN_NO_TX:
 228:apps/rssi/main.c **** 			fb_putstr("TX disabled", -1);
 229:apps/rssi/main.c **** 			break;
 230:apps/rssi/main.c **** 		case ASSIGN_TIMEOUT:
 231:apps/rssi/main.c **** 			fb_putstr("Timeout", -1);
 232:apps/rssi/main.c **** 			break;
 233:apps/rssi/main.c **** 		}
 234:apps/rssi/main.c **** 		switch (assign) {
 235:apps/rssi/main.c **** 		case ASSIGN_RESULT:
 236:apps/rssi/main.c **** 		case ASSIGN_REJECT:
 237:apps/rssi/main.c **** 			fb_gotoxy(0,44);
 238:apps/rssi/main.c **** 			sprintf(text, "Delay:%ldms", elapsed * 1000 / HZ);
 239:apps/rssi/main.c **** 			fb_putstr(text, -1);
 240:apps/rssi/main.c **** 			break;
 241:apps/rssi/main.c **** 		default:
 242:apps/rssi/main.c **** 			break;
 243:apps/rssi/main.c **** 		}
 244:apps/rssi/main.c **** 	}
 245:apps/rssi/main.c **** 
 246:apps/rssi/main.c **** 	/* SYNC / UL levels */
 247:apps/rssi/main.c **** 	if (mode == MODE_SYNC && cursor < 0) {
 248:apps/rssi/main.c **** 		int i, tn, l;
 249:apps/rssi/main.c **** 		int offset = (framebuffer->width - 96) >> 1;
 250:apps/rssi/main.c **** 		int height = framebuffer->height - 25;
 251:apps/rssi/main.c **** 
 252:apps/rssi/main.c **** 		fb_setfont(FB_FONT_HELVR08);
 253:apps/rssi/main.c **** 		for (i = 0; i < 8; i++) {
 254:apps/rssi/main.c **** 			if (uplink)
 255:apps/rssi/main.c **** 				tn = (i + 3) & 7; /* UL is shifted by 3 */
 256:apps/rssi/main.c **** 			else
 257:apps/rssi/main.c **** 				tn = i;
 258:apps/rssi/main.c **** 			fb_setbg(FB_COLOR_WHITE);
 259:apps/rssi/main.c **** 			fb_gotoxy(offset + 12 * i, 7);
 260:apps/rssi/main.c **** 			l = (max) ? ul_max[tn] : ul_levels[tn];
 261:apps/rssi/main.c **** 			l = 110 - l;
 262:apps/rssi/main.c **** 			if (l >= 100)
 263:apps/rssi/main.c **** 				l -= 100;
 264:apps/rssi/main.c **** 			sprintf(text, "%02d", l);
 265:apps/rssi/main.c **** 			fb_putstr(text, framebuffer->width);
 266:apps/rssi/main.c **** 			fb_setbg(FB_COLOR_BLACK);
 267:apps/rssi/main.c **** 			fb_gotoxy(offset + 3 + 12 * i, height + 10);
 268:apps/rssi/main.c **** 			fb_boxto(offset + 3 + 12 * i + 5, height + 10 - ul_levels[tn] * height / 64);
 269:apps/rssi/main.c **** 			if (max) {
 270:apps/rssi/main.c **** 				fb_gotoxy(offset + 3 + 12 * i, height + 10 - ul_max[tn] * height / 64);
 271:apps/rssi/main.c **** 				fb_boxto(offset + 3 + 12 * i + 5, height + 10 - ul_max[tn] * height / 64);
 272:apps/rssi/main.c **** 			}
 273:apps/rssi/main.c **** 		}
 274:apps/rssi/main.c **** 		fb_setbg(FB_COLOR_TRANSP);
 275:apps/rssi/main.c **** 		if (max) {
 276:apps/rssi/main.c **** 			fb_setfg(FB_COLOR_RED);
 277:apps/rssi/main.c **** 			fb_gotoxy(framebuffer->width - 16, 15);
 278:apps/rssi/main.c **** 			fb_putstr("max", framebuffer->width);
 279:apps/rssi/main.c **** 		}
 280:apps/rssi/main.c **** 		fb_setfont(FB_FONT_C64);
 281:apps/rssi/main.c **** 		fb_setfg(FB_COLOR_BLUE);
 282:apps/rssi/main.c **** 		fb_gotoxy(0, 16);
 283:apps/rssi/main.c **** 		if (pcs && ul_arfcn >= PCS_MIN && ul_arfcn <= PCS_MAX)
 284:apps/rssi/main.c **** 			sprintf(text, "%4dP", ul_arfcn);
 285:apps/rssi/main.c **** 		else if (ul_arfcn >= DCS_MIN && ul_arfcn <= DCS_MAX)
 286:apps/rssi/main.c **** 			sprintf(text, "%4dD", ul_arfcn);
 287:apps/rssi/main.c **** 		else
 288:apps/rssi/main.c **** 			sprintf(text, "%4d ", ul_arfcn);
 289:apps/rssi/main.c **** 		fb_putstr(text, framebuffer->width);
 290:apps/rssi/main.c **** 		fb_setbg(FB_COLOR_WHITE);
 291:apps/rssi/main.c **** 		fb_setfg(FB_COLOR_BLACK);
 292:apps/rssi/main.c **** 	}
 293:apps/rssi/main.c **** 
 294:apps/rssi/main.c **** 	/* SYNC / SI */
 295:apps/rssi/main.c **** 	if (mode == MODE_SYNC && cursor == 0) {
 296:apps/rssi/main.c **** 		fb_gotoxy(0, 20);
 297:apps/rssi/main.c **** 		if (sync_msg[0] == 'o')
 298:apps/rssi/main.c **** 			sprintf(text, "BSIC%d/%d %4d", bsic >> 3, bsic & 7,
 299:apps/rssi/main.c **** 				power - 110);
 300:apps/rssi/main.c **** 		else
 301:apps/rssi/main.c **** 			sprintf(text, "Sync %s", sync_msg);
 302:apps/rssi/main.c **** 		fb_putstr(text, -1);
 303:apps/rssi/main.c **** 
 304:apps/rssi/main.c **** 		fb_gotoxy(0,28);
 305:apps/rssi/main.c **** 		text[0] = si_1[2] ? '1' : '-';
 306:apps/rssi/main.c **** 		text[1] = ' ';
 307:apps/rssi/main.c **** 		text[2] = si_2[2] ? '2' : '-';
 308:apps/rssi/main.c **** 		text[3] = ' ';
 309:apps/rssi/main.c **** 		text[4] = si_2bis[2] ? '2' : '-';
 310:apps/rssi/main.c **** 		text[5] = si_2bis[2] ? 'b' : ' ';
 311:apps/rssi/main.c **** 		text[6] = si_2ter[2] ? '2' : '-';
 312:apps/rssi/main.c **** 		text[7] = si_2ter[2] ? 't' : ' ';
 313:apps/rssi/main.c **** 		text[8] = ' ';
 314:apps/rssi/main.c **** 		text[9] = si_3[2] ? '3' : '-';
 315:apps/rssi/main.c **** 		text[10] = ' ';
 316:apps/rssi/main.c **** 		text[11] = si_4[2] ? '4' : '-';
 317:apps/rssi/main.c **** 		text[12] = '\0';
 318:apps/rssi/main.c **** 		fb_putstr(text, -1);
 319:apps/rssi/main.c **** 
 320:apps/rssi/main.c **** 		fb_gotoxy(0, 36);
 321:apps/rssi/main.c **** 		fb_putstr("MCC MNC LAC ", -1);
 322:apps/rssi/main.c **** 		fb_gotoxy(0, 44);
 323:apps/rssi/main.c **** 		if (mcc) {
 324:apps/rssi/main.c **** 			if ((mnc & 0x00f) == 0x00f)
 325:apps/rssi/main.c **** 				sprintf(text, "%3x %02x  %04x", mcc, mnc >> 4, lac);
 326:apps/rssi/main.c **** 			else
 327:apps/rssi/main.c **** 				sprintf(text, "%3x %03x %04x", mcc, mnc, lac);
 328:apps/rssi/main.c **** 			fb_putstr(text, -1);
 329:apps/rssi/main.c **** 		} else
 330:apps/rssi/main.c **** 			fb_putstr("--- --- ----", -1);
 331:apps/rssi/main.c **** 		fb_gotoxy(0, 52);
 332:apps/rssi/main.c **** 		if (si_3[2]) {
 333:apps/rssi/main.c **** 			sprintf(text, "cell id:%04x", cell_id);
 334:apps/rssi/main.c **** 			fb_putstr(text, -1);
 335:apps/rssi/main.c **** 		} else
 336:apps/rssi/main.c **** 			fb_putstr("cell id:----", -1);
 337:apps/rssi/main.c **** 	}
 338:apps/rssi/main.c **** 
 339:apps/rssi/main.c **** 	/* SYNC / neighbour cells */
 340:apps/rssi/main.c **** 	if (mode == MODE_SYNC && cursor > 0) {
 341:apps/rssi/main.c **** 		int i, y = 0;
 342:apps/rssi/main.c **** 
 343:apps/rssi/main.c **** 		text[0] = '\0';
 344:apps/rssi/main.c **** 		for (i = 0; i < 1024; i++) {
 345:apps/rssi/main.c **** 			if (freq[i].mask & FREQ_TYPE_SERV) {
 346:apps/rssi/main.c **** 				if (!text[0])
 347:apps/rssi/main.c **** 					sprintf(text, "S: %4d", i);
 348:apps/rssi/main.c **** 				else {
 349:apps/rssi/main.c **** 					sprintf(text + 7, " %4d", i);
 350:apps/rssi/main.c **** 					print_display(text, &y, cursor - 1);
 351:apps/rssi/main.c **** 					text[0] = '\0';
 352:apps/rssi/main.c **** 				}
 353:apps/rssi/main.c **** 			}
 354:apps/rssi/main.c **** 		}
 355:apps/rssi/main.c **** 		if (text[0])
 356:apps/rssi/main.c **** 			print_display(text, &y, cursor - 1);
 357:apps/rssi/main.c **** 		text[0] = '\0';
 358:apps/rssi/main.c **** 		for (i = 0; i < 1024; i++) {
 359:apps/rssi/main.c **** 			if (freq[i].mask & FREQ_TYPE_NCELL) {
 360:apps/rssi/main.c **** 				if (!text[0])
 361:apps/rssi/main.c **** 					sprintf(text, "N: %4d", i);
 362:apps/rssi/main.c **** 				else {
 363:apps/rssi/main.c **** 					sprintf(text + 7, " %4d", i);
 364:apps/rssi/main.c **** 					print_display(text, &y, cursor - 1);
 365:apps/rssi/main.c **** 					text[0] = '\0';
 366:apps/rssi/main.c **** 				}
 367:apps/rssi/main.c **** 			}
 368:apps/rssi/main.c **** 		}
 369:apps/rssi/main.c **** 		if (text[0])
 370:apps/rssi/main.c **** 			print_display(text, &y, cursor - 1);
 371:apps/rssi/main.c **** 		nb_num = y;
 372:apps/rssi/main.c **** 	}
 373:apps/rssi/main.c **** 
 374:apps/rssi/main.c **** 	/* ARFCN */
 375:apps/rssi/main.c **** 	if (mode == MODE_MAIN || mode == MODE_ARFCN) {
 376:apps/rssi/main.c **** 		fb_gotoxy(0, 20);
 377:apps/rssi/main.c **** 		if (mode == MODE_ARFCN)
 378:apps/rssi/main.c **** 			sprintf(text, "ARFCN %s", input);
 379:apps/rssi/main.c **** 		else if (pcs && arfcn >= PCS_MIN && arfcn <= PCS_MAX)
 380:apps/rssi/main.c **** 			sprintf(text, "ARFCN %dPCS", arfcn);
 381:apps/rssi/main.c **** 		else if (arfcn >= DCS_MIN && arfcn <= DCS_MAX)
 382:apps/rssi/main.c **** 			sprintf(text, "ARFCN %dDCS", arfcn);
 383:apps/rssi/main.c **** 		else
 384:apps/rssi/main.c **** 			sprintf(text, "ARFCN %d", arfcn);
 385:apps/rssi/main.c **** 		fb_putstr(text,framebuffer->width);
 386:apps/rssi/main.c **** 	}
 387:apps/rssi/main.c **** 
 388:apps/rssi/main.c **** 	/* cursor */
 389:apps/rssi/main.c **** 	if (mode == MODE_ARFCN) {
 390:apps/rssi/main.c **** 		fb_setfg(FB_COLOR_WHITE);
 391:apps/rssi/main.c **** 		fb_setbg(FB_COLOR_BLUE);
 392:apps/rssi/main.c **** 		fb_putstr(" ", framebuffer->width);
 393:apps/rssi/main.c **** 		fb_setfg(FB_COLOR_BLACK);
 394:apps/rssi/main.c **** 		fb_setbg(FB_COLOR_WHITE);
 395:apps/rssi/main.c **** 	}
 396:apps/rssi/main.c **** 
 397:apps/rssi/main.c **** 	/* Frequency / power */
 398:apps/rssi/main.c **** 	if (mode == MODE_MAIN) {
 399:apps/rssi/main.c **** 		int f;
 400:apps/rssi/main.c **** 
 401:apps/rssi/main.c **** 		if (pcs && arfcn >= PCS_MIN && arfcn <= PCS_MAX) {
 402:apps/rssi/main.c **** 			if (uplink)
 403:apps/rssi/main.c **** 				f = PCS_UL;
 404:apps/rssi/main.c **** 			else
 405:apps/rssi/main.c **** 				f = PCS_DL;
 406:apps/rssi/main.c **** 		} else if (uplink)
 407:apps/rssi/main.c **** 			f = band->freq_ul;
 408:apps/rssi/main.c **** 		else
 409:apps/rssi/main.c **** 			f = band->freq_dl;
 410:apps/rssi/main.c **** 		f += ((arfcn - band->min) & 1023) << 1;
 411:apps/rssi/main.c **** 
 412:apps/rssi/main.c **** 		fb_gotoxy(0, 30);
 413:apps/rssi/main.c **** 		sprintf(text, "Freq. %d.%d", f / 10, f % 10);
 414:apps/rssi/main.c **** 		fb_putstr(text,framebuffer->width);
 415:apps/rssi/main.c **** 
 416:apps/rssi/main.c **** 		fb_gotoxy(0, 40);
 417:apps/rssi/main.c **** 		sprintf(text, "Power %d", ((max) ? max_power : power) - 110);
 418:apps/rssi/main.c **** 		fb_putstr(text, framebuffer->width);
 419:apps/rssi/main.c **** 		if (max) {
 420:apps/rssi/main.c **** 			fb_setfont(FB_FONT_HELVR08);
 421:apps/rssi/main.c **** 			fb_setfg(FB_COLOR_RED);
 422:apps/rssi/main.c **** 			fb_gotoxy(framebuffer->width - 16, 39);
 423:apps/rssi/main.c **** 			fb_putstr("max", framebuffer->width);
 424:apps/rssi/main.c **** 			fb_setfont(FB_FONT_C64);
 425:apps/rssi/main.c **** 			fb_setfg(FB_COLOR_BLACK);
 426:apps/rssi/main.c **** 		}
 427:apps/rssi/main.c **** 		fb_setbg(FB_COLOR_BLACK);
 428:apps/rssi/main.c **** 		fb_gotoxy(0, 45);
 429:apps/rssi/main.c **** 		fb_boxto(framebuffer->width * power / 64, 50);
 430:apps/rssi/main.c **** 		if (max) {
 431:apps/rssi/main.c **** 			fb_gotoxy(framebuffer->width * max_power / 64 ,45);
 432:apps/rssi/main.c **** 			fb_boxto(framebuffer->width * max_power / 64, 50);
 433:apps/rssi/main.c **** 		}
 434:apps/rssi/main.c **** 		fb_setbg(FB_COLOR_WHITE);
 435:apps/rssi/main.c **** 	}
 436:apps/rssi/main.c **** 
 437:apps/rssi/main.c **** 	/* spectrum */
 438:apps/rssi/main.c **** 	if (mode == MODE_SPECTRUM) {
 439:apps/rssi/main.c **** 		int i;
 440:apps/rssi/main.c **** 		uint16_t a, e, p;
 441:apps/rssi/main.c **** 		int height = framebuffer->height - 25;
 442:apps/rssi/main.c **** 
 443:apps/rssi/main.c **** 		fb_gotoxy(0, 8);
 444:apps/rssi/main.c **** 		if (pcs && arfcn >= PCS_MIN && arfcn <= PCS_MAX)
 445:apps/rssi/main.c **** 			sprintf(text, "%4dP", arfcn);
 446:apps/rssi/main.c **** 		else if (arfcn >= DCS_MIN && arfcn <= DCS_MAX)
 447:apps/rssi/main.c **** 			sprintf(text, "%4dD", arfcn);
 448:apps/rssi/main.c **** 		else
 449:apps/rssi/main.c **** 			sprintf(text, "%4d ", arfcn);
 450:apps/rssi/main.c **** 		sprintf(text + 5, "   %4d", pm_spectrum[arfcn & 1023] - 110);
 451:apps/rssi/main.c **** 		fb_putstr(text, -1);
 452:apps/rssi/main.c **** 		fb_setfg(FB_COLOR_RED);
 453:apps/rssi/main.c **** 		if (max) {
 454:apps/rssi/main.c **** 			fb_setfont(FB_FONT_HELVR08);
 455:apps/rssi/main.c **** 			fb_gotoxy(framebuffer->width - 16,15);
 456:apps/rssi/main.c **** 			fb_putstr("max", framebuffer->width);
 457:apps/rssi/main.c **** 			fb_setfont(FB_FONT_C64);
 458:apps/rssi/main.c **** 		}
 459:apps/rssi/main.c **** 		if (pm_scale != 1) {
 460:apps/rssi/main.c **** 			fb_setfont(FB_FONT_HELVR08);
 461:apps/rssi/main.c **** 			fb_gotoxy(1, 15);
 462:apps/rssi/main.c **** 			sprintf(text, "x%d", pm_scale);
 463:apps/rssi/main.c **** 			fb_putstr(text, framebuffer->width);
 464:apps/rssi/main.c **** 			fb_setfont(FB_FONT_C64);
 465:apps/rssi/main.c **** 		}
 466:apps/rssi/main.c **** 		fb_setfg(FB_COLOR_BLACK);
 467:apps/rssi/main.c **** 		if (pcs && arfcn >= PCS_MIN && arfcn <= PCS_MAX) {
 468:apps/rssi/main.c **** 			a = PCS_MIN;
 469:apps/rssi/main.c **** 			e = PCS_MAX;
 470:apps/rssi/main.c **** 		} else {
 471:apps/rssi/main.c **** 			a = band->min;
 472:apps/rssi/main.c **** 			e = band->max;
 473:apps/rssi/main.c **** 		}
 474:apps/rssi/main.c **** 		for (i = 0; i < framebuffer->width; i++) {
 475:apps/rssi/main.c **** 			p = (arfcn + i - (framebuffer->width >> 1)) & 1023;
 476:apps/rssi/main.c **** 			if ((((p - a) & 1023) & 512))
 477:apps/rssi/main.c **** 				continue;
 478:apps/rssi/main.c **** 			if ((((e - p) & 1023) & 512))
 479:apps/rssi/main.c **** 				continue;
 480:apps/rssi/main.c **** 			p = (pm_spectrum[p] * pm_scale * height / 64);
 481:apps/rssi/main.c **** 			if (p > height)
 482:apps/rssi/main.c **** 				p = height;
 483:apps/rssi/main.c **** 			if (i == (framebuffer->width >> 1))
 484:apps/rssi/main.c **** 				fb_setfg(FB_COLOR_RED);
 485:apps/rssi/main.c **** 			fb_gotoxy(i, height + 10 - p);
 486:apps/rssi/main.c **** 			fb_boxto(i, height + 10);
 487:apps/rssi/main.c **** 			if (i == (framebuffer->width >> 1))
 488:apps/rssi/main.c **** 				fb_setfg(FB_COLOR_BLACK);
 489:apps/rssi/main.c **** 		}
 490:apps/rssi/main.c **** 		i = framebuffer->width >> 1;
 491:apps/rssi/main.c **** 		fb_gotoxy(i, 0);
 492:apps/rssi/main.c **** 		fb_boxto(i, 4);
 493:apps/rssi/main.c **** 		fb_gotoxy(i, height + 10);
 494:apps/rssi/main.c **** 		fb_boxto(i, height + 14);
 495:apps/rssi/main.c **** 	}
 496:apps/rssi/main.c **** 
 497:apps/rssi/main.c **** 	/* footer */
 498:apps/rssi/main.c **** 	fb_setfg(FB_COLOR_GREEN);
 499:apps/rssi/main.c **** 	fb_gotoxy(0, framebuffer->height - 10);
 500:apps/rssi/main.c **** 	fb_boxto(framebuffer->width-1, framebuffer->height - 10);
 501:apps/rssi/main.c **** 	fb_gotoxy(0, framebuffer->height - 1);
 502:apps/rssi/main.c **** 	fb_setfg(FB_COLOR_RED);
 503:apps/rssi/main.c **** 	if (mode == MODE_ARFCN)
 504:apps/rssi/main.c **** 		sprintf(text, "%s   %s", (cursor) ? "del " : "back",
 505:apps/rssi/main.c **** 			(cursor) ? "enter" : "     ");
 506:apps/rssi/main.c **** 	else if (mode == MODE_SYNC && cursor < 0)
 507:apps/rssi/main.c **** 		sprintf(text, "%s      %s", "back",
 508:apps/rssi/main.c **** 			(uplink) ? "UL" : "DL");
 509:apps/rssi/main.c **** 	else if (mode == MODE_SYNC || mode == MODE_RACH)
 510:apps/rssi/main.c **** 		sprintf(text, "%s        ", "back");
 511:apps/rssi/main.c **** 	else
 512:apps/rssi/main.c **** 		sprintf(text, "%s       %s", (pcs) ? "PCS" : "DCS",
 513:apps/rssi/main.c **** 			(uplink) ? "UL" : "DL");
 514:apps/rssi/main.c **** 	fb_putstr(text, -1);
 515:apps/rssi/main.c **** 	fb_setfg(FB_COLOR_BLACK);
 516:apps/rssi/main.c **** 	fb_setfont(FB_FONT_HELVR08);
 517:apps/rssi/main.c **** 	fb_gotoxy(0, framebuffer->height - 2);
 518:apps/rssi/main.c **** 	sprintf(text, "%d", tone / 25);
 519:apps/rssi/main.c **** 	fb_putstr(text, -1);
 520:apps/rssi/main.c **** 
 521:apps/rssi/main.c **** 	fb_flush();
 522:apps/rssi/main.c **** }
 523:apps/rssi/main.c **** 
 524:apps/rssi/main.c **** static void exit_arfcn(void)
 525:apps/rssi/main.c **** {
 526:apps/rssi/main.c **** 	mode = last_mode;
 527:apps/rssi/main.c **** 	refresh_display();
 528:apps/rssi/main.c **** }
 529:apps/rssi/main.c **** 
 530:apps/rssi/main.c **** static void enter_arfcn(enum key_codes code)
 531:apps/rssi/main.c **** {
 532:apps/rssi/main.c **** 	/* enter mode */
 533:apps/rssi/main.c **** 	if (mode != MODE_ARFCN) {
 534:apps/rssi/main.c **** 		last_mode = mode;
 535:apps/rssi/main.c **** 		mode = MODE_ARFCN;
 536:apps/rssi/main.c **** 		input[0] = code - KEY_0 + '0';
 537:apps/rssi/main.c **** 		input[1] = '\0';
 538:apps/rssi/main.c **** 		cursor = 1;
 539:apps/rssi/main.c **** 		refresh_display();
 540:apps/rssi/main.c **** 		return;
 541:apps/rssi/main.c **** 	}
 542:apps/rssi/main.c **** 
 543:apps/rssi/main.c **** 	if (code == KEY_LEFT_SB) {
 544:apps/rssi/main.c **** 		/* back */
 545:apps/rssi/main.c **** 		if (cursor == 0) {
 546:apps/rssi/main.c **** 			exit_arfcn();
 547:apps/rssi/main.c **** 			return;
 548:apps/rssi/main.c **** 		}
 549:apps/rssi/main.c **** 		/* delete */
 550:apps/rssi/main.c **** 		cursor--;
 551:apps/rssi/main.c **** 		input[cursor] = '\0';
 552:apps/rssi/main.c **** 		refresh_display();
 553:apps/rssi/main.c **** 		return;
 554:apps/rssi/main.c **** 	}
 555:apps/rssi/main.c **** 
 556:apps/rssi/main.c **** 	if (code == KEY_RIGHT_SB) {
 557:apps/rssi/main.c **** 		int check = 0;
 558:apps/rssi/main.c **** 		int i;
 559:apps/rssi/main.c **** 		struct band *temp = NULL;
 560:apps/rssi/main.c **** 
 561:apps/rssi/main.c **** 		/* nothing entered */
 562:apps/rssi/main.c **** 		if (cursor == 0) {
 563:apps/rssi/main.c **** 			return;
 564:apps/rssi/main.c **** 		}
 565:apps/rssi/main.c **** 		for (i = 0; i < cursor; i++)
 566:apps/rssi/main.c **** 			check = (check << 3) + (check << 1) + input[i] - '0';
 567:apps/rssi/main.c **** 
 568:apps/rssi/main.c **** 		/* check */
 569:apps/rssi/main.c **** 		for (i = 0; bands[i].max; i++) {
 570:apps/rssi/main.c **** 			temp = &bands[i];
 571:apps/rssi/main.c **** 			if (temp->min < temp->max) {
 572:apps/rssi/main.c **** 				if (check >= temp->min && check <= temp->max)
 573:apps/rssi/main.c **** 					break;
 574:apps/rssi/main.c **** 			} else {
 575:apps/rssi/main.c **** 				if (check >= temp->min || check <= temp->max)
 576:apps/rssi/main.c **** 					break;
 577:apps/rssi/main.c **** 			}
 578:apps/rssi/main.c **** 		}
 579:apps/rssi/main.c **** 		if (!bands[i].max)
 580:apps/rssi/main.c **** 			return;
 581:apps/rssi/main.c **** 		if (check > 1023)
 582:apps/rssi/main.c **** 			return;
 583:apps/rssi/main.c **** 		arfcn = check;
 584:apps/rssi/main.c **** 		band = temp;
 585:apps/rssi/main.c **** 		mode = last_mode;
 586:apps/rssi/main.c **** 		refresh_display();
 587:apps/rssi/main.c **** 		return;
 588:apps/rssi/main.c **** 	}
 589:apps/rssi/main.c **** 
 590:apps/rssi/main.c **** 	if (cursor == 4)
 591:apps/rssi/main.c **** 		return;
 592:apps/rssi/main.c **** 
 593:apps/rssi/main.c **** 	input[cursor] = code - KEY_0 + '0';
 594:apps/rssi/main.c **** 	cursor++;
 595:apps/rssi/main.c **** 	input[cursor] = '\0';
 596:apps/rssi/main.c **** 	refresh_display();
 597:apps/rssi/main.c **** }
 598:apps/rssi/main.c **** 
 599:apps/rssi/main.c **** static int inc_dec_arfcn(int inc)
 600:apps/rssi/main.c **** {
 601:apps/rssi/main.c **** 	int i;
 602:apps/rssi/main.c **** 
 603:apps/rssi/main.c **** 	/* select current band */
 604:apps/rssi/main.c **** 	for (i = 0; bands[i].max; i++) {
 605:apps/rssi/main.c **** 		band = &bands[i];
 606:apps/rssi/main.c **** 		if (band->min < band->max) {
 607:apps/rssi/main.c **** 			if (arfcn >= band->min && arfcn <= band->max)
 608:apps/rssi/main.c **** 				break;
 609:apps/rssi/main.c **** 		} else {
 610:apps/rssi/main.c **** 			if (arfcn >= band->min || arfcn <= band->max)
 611:apps/rssi/main.c **** 				break;
 612:apps/rssi/main.c **** 		}
 613:apps/rssi/main.c **** 	}
 614:apps/rssi/main.c **** 	if (!bands[i].max)
 615:apps/rssi/main.c **** 		return -EINVAL;
 616:apps/rssi/main.c **** 
 617:apps/rssi/main.c **** 	if (inc) {
 618:apps/rssi/main.c **** 		if (arfcn == band->max)
 619:apps/rssi/main.c **** 			arfcn = band->next;
 620:apps/rssi/main.c **** 		else if (arfcn == 1023)
 621:apps/rssi/main.c **** 			arfcn = 0;
 622:apps/rssi/main.c **** 		else
 623:apps/rssi/main.c **** 			arfcn++;
 624:apps/rssi/main.c **** 	} else {
 625:apps/rssi/main.c **** 		if (arfcn == band->min)
 626:apps/rssi/main.c **** 			arfcn = band->prev;
 627:apps/rssi/main.c **** 		else if (arfcn == 0)
 628:apps/rssi/main.c **** 			arfcn = 1023;
 629:apps/rssi/main.c **** 		else
 630:apps/rssi/main.c **** 			arfcn--;
 631:apps/rssi/main.c **** 	}
 632:apps/rssi/main.c **** 	/* select next band */
 633:apps/rssi/main.c **** 	for (i = 0; bands[i].max; i++) {
 634:apps/rssi/main.c **** 		band = &bands[i];
 635:apps/rssi/main.c **** 		if (band->min < band->max) {
 636:apps/rssi/main.c **** 			if (arfcn >= band->min && arfcn <= band->max)
 637:apps/rssi/main.c **** 				break;
 638:apps/rssi/main.c **** 		} else {
 639:apps/rssi/main.c **** 			if (arfcn >= band->min || arfcn <= band->max)
 640:apps/rssi/main.c **** 				break;
 641:apps/rssi/main.c **** 		}
 642:apps/rssi/main.c **** 	}
 643:apps/rssi/main.c **** 	if (!bands[i].max)
 644:apps/rssi/main.c **** 		return -EINVAL;
 645:apps/rssi/main.c **** 
 646:apps/rssi/main.c **** 	refresh_display();
 647:apps/rssi/main.c **** 
 648:apps/rssi/main.c **** 	return 0;
 649:apps/rssi/main.c **** }
 650:apps/rssi/main.c **** 
 651:apps/rssi/main.c **** static void request_ul_levels(uint16_t a);
 652:apps/rssi/main.c **** 
 653:apps/rssi/main.c **** static int inc_dec_ul_arfcn(int inc)
 654:apps/rssi/main.c **** {
 655:apps/rssi/main.c **** 	uint16_t a;
 656:apps/rssi/main.c **** 
 657:apps/rssi/main.c **** 	/* loop until we hit a serving cell or our current bcch arfcn */
 658:apps/rssi/main.c **** 	if (inc) {
 659:apps/rssi/main.c **** 		for (a = (ul_arfcn + 1) & 1023; a != (arfcn & 1023);
 660:apps/rssi/main.c **** 					a = (a + 1) & 1023) {
 661:apps/rssi/main.c **** 			if ((freq[a].mask & FREQ_TYPE_SERV))
 662:apps/rssi/main.c **** 				break;
 663:apps/rssi/main.c **** 		}
 664:apps/rssi/main.c **** 	} else {
 665:apps/rssi/main.c **** 		for (a = (ul_arfcn - 1) & 1023; a != (arfcn & 1023);
 666:apps/rssi/main.c **** 					a = (a - 1) & 1023) {
 667:apps/rssi/main.c **** 			if ((freq[a].mask & FREQ_TYPE_SERV))
 668:apps/rssi/main.c **** 				break;
 669:apps/rssi/main.c **** 		}
 670:apps/rssi/main.c **** 	}
 671:apps/rssi/main.c **** 	ul_arfcn = a;
 672:apps/rssi/main.c **** 
 673:apps/rssi/main.c **** 	refresh_display();
 674:apps/rssi/main.c **** 
 675:apps/rssi/main.c **** 	request_ul_levels(a);
 676:apps/rssi/main.c **** 
 677:apps/rssi/main.c **** 	return 0;
 678:apps/rssi/main.c **** }
 679:apps/rssi/main.c **** 
 680:apps/rssi/main.c **** static void toggle_dcs_pcs(void)
 681:apps/rssi/main.c **** {
 682:apps/rssi/main.c **** 	pcs = !pcs;
 683:apps/rssi/main.c **** 	refresh_display();
 684:apps/rssi/main.c **** }
 685:apps/rssi/main.c **** 
 686:apps/rssi/main.c **** static void toggle_up_down(void)
 687:apps/rssi/main.c **** {
 688:apps/rssi/main.c **** 	uplink = !uplink;
 689:apps/rssi/main.c **** 	refresh_display();
 690:apps/rssi/main.c **** 
 691:apps/rssi/main.c **** 	if (mode == MODE_SYNC && cursor < 0)
 692:apps/rssi/main.c **** 		request_ul_levels(ul_arfcn);
 693:apps/rssi/main.c **** }
 694:apps/rssi/main.c **** 
 695:apps/rssi/main.c **** static void toggle_spectrum(void)
 696:apps/rssi/main.c **** {
 697:apps/rssi/main.c **** 	if (mode == MODE_MAIN) {
 698:apps/rssi/main.c **** 		mode = MODE_SPECTRUM;
 699:apps/rssi/main.c **** 		pm_mode = PM_IDLE;
 700:apps/rssi/main.c **** 	} else if (mode == MODE_SPECTRUM) {
 701:apps/rssi/main.c **** 		mode = MODE_MAIN;
 702:apps/rssi/main.c **** 		pm_mode = PM_IDLE;
 703:apps/rssi/main.c **** 	}
 704:apps/rssi/main.c **** 	l1s_reset();
 705:apps/rssi/main.c **** 	l1s_reset_hw();
 706:apps/rssi/main.c **** 	pm_count = 0;
 707:apps/rssi/main.c **** 	refresh_display();
 708:apps/rssi/main.c **** }
 709:apps/rssi/main.c **** 
 710:apps/rssi/main.c **** static void tone_inc_dec(int inc)
 711:apps/rssi/main.c **** {
 712:apps/rssi/main.c **** 	if (inc) {
 713:apps/rssi/main.c **** 		if (tone + 25 <= 255)
 714:apps/rssi/main.c **** 			tone += 25;
 715:apps/rssi/main.c **** 	} else {
 716:apps/rssi/main.c **** 		if (tone - 25 >= 0)
 717:apps/rssi/main.c **** 			tone -= 25;
 718:apps/rssi/main.c **** 	}
 719:apps/rssi/main.c **** 
 720:apps/rssi/main.c **** 	refresh_display();
 721:apps/rssi/main.c **** }
 722:apps/rssi/main.c **** 
 723:apps/rssi/main.c **** static void hold_max(void)
 724:apps/rssi/main.c **** {
 725:apps/rssi/main.c **** 	max = !max;
 726:apps/rssi/main.c **** 	max_power = power;
 727:apps/rssi/main.c **** 	refresh_display();
 728:apps/rssi/main.c **** }
 729:apps/rssi/main.c **** 
 730:apps/rssi/main.c **** static int inc_dec_neighbour(int inc)
 731:apps/rssi/main.c **** {
 732:apps/rssi/main.c **** 	if (inc) {
 733:apps/rssi/main.c **** 		if (cursor > 0 && cursor - 1 >= (nb_num - NEIGH_LINES))
 734:apps/rssi/main.c **** 			return -EINVAL;
 735:apps/rssi/main.c **** 		cursor++;
 736:apps/rssi/main.c **** 	} else {
 737:apps/rssi/main.c **** 		if (cursor < 0)
 738:apps/rssi/main.c **** 			return -EINVAL;
 739:apps/rssi/main.c **** 		cursor--;
 740:apps/rssi/main.c **** 	}
 741:apps/rssi/main.c **** 
 742:apps/rssi/main.c **** 	refresh_display();
 743:apps/rssi/main.c **** 
 744:apps/rssi/main.c **** 	return 0;
 745:apps/rssi/main.c **** }
 746:apps/rssi/main.c **** 
 747:apps/rssi/main.c **** static int inc_dec_spectrum(int inc)
 748:apps/rssi/main.c **** {
 749:apps/rssi/main.c **** 	if (inc) {
 750:apps/rssi/main.c **** 		pm_scale <<= 1;
 751:apps/rssi/main.c **** 		if (pm_scale > 8)
 752:apps/rssi/main.c **** 			pm_scale = 8;
 753:apps/rssi/main.c **** 	} else {
 754:apps/rssi/main.c **** 		pm_scale >>= 1;
 755:apps/rssi/main.c **** 		if (pm_scale < 1)
 756:apps/rssi/main.c **** 			pm_scale = 1;
 757:apps/rssi/main.c **** 	}
 758:apps/rssi/main.c **** 
 759:apps/rssi/main.c **** 	refresh_display();
 760:apps/rssi/main.c **** 
 761:apps/rssi/main.c **** 	return 0;
 762:apps/rssi/main.c **** }
 763:apps/rssi/main.c **** 
 764:apps/rssi/main.c **** static void enter_sync(void);
 765:apps/rssi/main.c **** static void exit_sync(void);
 766:apps/rssi/main.c **** 
 767:apps/rssi/main.c **** static void enter_rach(void);
 768:apps/rssi/main.c **** static void exit_rach(void);
 769:apps/rssi/main.c **** 
 770:apps/rssi/main.c **** static void handle_key_code()
 771:apps/rssi/main.c **** {
 772:apps/rssi/main.c **** 	/* key repeat */
 773:apps/rssi/main.c **** 	if (key_pressed) {
 774:apps/rssi/main.c **** 		unsigned long elapsed = jiffies - key_pressed_when;
 775:apps/rssi/main.c **** 		if (elapsed > key_pressed_delay) {
 776:apps/rssi/main.c **** 			key_pressed_when = jiffies;
 777:apps/rssi/main.c **** 			key_pressed_delay = HZ / 10;
 778:apps/rssi/main.c **** 			/* only repeat these keys */
 779:apps/rssi/main.c **** 			if (key_pressed_code == KEY_LEFT
 780:apps/rssi/main.c **** 			 || key_pressed_code == KEY_RIGHT)
 781:apps/rssi/main.c **** 				key_code = key_pressed_code;
 782:apps/rssi/main.c **** 		}
 783:apps/rssi/main.c **** 	}
 784:apps/rssi/main.c **** 
 785:apps/rssi/main.c **** 	if (key_code == KEY_INV)
 786:apps/rssi/main.c **** 		return;
 787:apps/rssi/main.c **** 
 788:apps/rssi/main.c **** 	/* do later, do not disturb tone */
 789:apps/rssi/main.c **** 	if (tone_on)
 790:apps/rssi/main.c **** 		return;
 791:apps/rssi/main.c **** 
 792:apps/rssi/main.c **** 	switch (key_code) {
 793:apps/rssi/main.c **** 	case KEY_0:
 794:apps/rssi/main.c **** 	case KEY_1:
 795:apps/rssi/main.c **** 	case KEY_2:
 796:apps/rssi/main.c **** 	case KEY_3:
 797:apps/rssi/main.c **** 	case KEY_4:
 798:apps/rssi/main.c **** 	case KEY_5:
 799:apps/rssi/main.c **** 	case KEY_6:
 800:apps/rssi/main.c **** 	case KEY_7:
 801:apps/rssi/main.c **** 	case KEY_8:
 802:apps/rssi/main.c **** 	case KEY_9:
 803:apps/rssi/main.c **** 		if (mode == MODE_MAIN || mode == MODE_SPECTRUM || mode == MODE_ARFCN)
 804:apps/rssi/main.c **** 			enter_arfcn(key_code);
 805:apps/rssi/main.c **** 		break;
 806:apps/rssi/main.c **** 	case KEY_UP:
 807:apps/rssi/main.c **** 		if (mode == MODE_MAIN)
 808:apps/rssi/main.c **** 			tone_inc_dec(1);
 809:apps/rssi/main.c **** 		else if (mode == MODE_SYNC)
 810:apps/rssi/main.c **** 			inc_dec_neighbour(0);
 811:apps/rssi/main.c **** 		else if (mode == MODE_SPECTRUM)
 812:apps/rssi/main.c **** 			inc_dec_spectrum(1);
 813:apps/rssi/main.c **** 		break;
 814:apps/rssi/main.c **** 	case KEY_DOWN:
 815:apps/rssi/main.c **** 		if (mode == MODE_MAIN)
 816:apps/rssi/main.c **** 			tone_inc_dec(0);
 817:apps/rssi/main.c **** 		else if (mode == MODE_SYNC)
 818:apps/rssi/main.c **** 			inc_dec_neighbour(1);
 819:apps/rssi/main.c **** 		else if (mode == MODE_SPECTRUM)
 820:apps/rssi/main.c **** 			inc_dec_spectrum(0);
 821:apps/rssi/main.c **** 		break;
 822:apps/rssi/main.c **** 	case KEY_RIGHT:
 823:apps/rssi/main.c **** 		if (mode == MODE_MAIN || mode == MODE_SPECTRUM)
 824:apps/rssi/main.c **** 			inc_dec_arfcn(1);
 825:apps/rssi/main.c **** 		else if (mode == MODE_SYNC && cursor < 0)
 826:apps/rssi/main.c **** 			inc_dec_ul_arfcn(1);
 827:apps/rssi/main.c **** 		break;
 828:apps/rssi/main.c **** 	case KEY_LEFT:
 829:apps/rssi/main.c **** 		if (mode == MODE_MAIN || mode == MODE_SPECTRUM)
 830:apps/rssi/main.c **** 			inc_dec_arfcn(0);
 831:apps/rssi/main.c **** 		else if (mode == MODE_SYNC && cursor < 0)
 832:apps/rssi/main.c **** 			inc_dec_ul_arfcn(0);
 833:apps/rssi/main.c **** 		break;
 834:apps/rssi/main.c **** 	case KEY_LEFT_SB:
 835:apps/rssi/main.c **** 		if (mode == MODE_MAIN || mode == MODE_SPECTRUM)
 836:apps/rssi/main.c **** 			toggle_dcs_pcs();
 837:apps/rssi/main.c **** 		else if (mode == MODE_ARFCN)
 838:apps/rssi/main.c **** 			enter_arfcn(key_code);
 839:apps/rssi/main.c **** 		else if (mode == MODE_SYNC)
 840:apps/rssi/main.c **** 			exit_sync();
 841:apps/rssi/main.c **** 		else if (mode == MODE_RACH)
 842:apps/rssi/main.c **** 			exit_rach();
 843:apps/rssi/main.c **** 		break;
 844:apps/rssi/main.c **** 	case KEY_RIGHT_SB:
 845:apps/rssi/main.c **** 		if (mode == MODE_MAIN || mode == MODE_SPECTRUM)
 846:apps/rssi/main.c **** 			toggle_up_down();
 847:apps/rssi/main.c **** 		else if (mode == MODE_ARFCN)
 848:apps/rssi/main.c **** 			enter_arfcn(key_code);
 849:apps/rssi/main.c **** 		else if (mode == MODE_SYNC && cursor < 0)
 850:apps/rssi/main.c **** 			toggle_up_down();
 851:apps/rssi/main.c **** 		break;
 852:apps/rssi/main.c **** 	case KEY_OK:
 853:apps/rssi/main.c **** 		if (mode == MODE_MAIN || mode == MODE_SPECTRUM)
 854:apps/rssi/main.c **** 			enter_sync();
 855:apps/rssi/main.c **** 		else if (mode == MODE_SYNC || mode == MODE_RACH)
 856:apps/rssi/main.c **** 			enter_rach();
 857:apps/rssi/main.c **** 		break;
 858:apps/rssi/main.c **** 	case KEY_MENU:
 859:apps/rssi/main.c **** 		hold_max();
 860:apps/rssi/main.c **** 		break;
 861:apps/rssi/main.c **** 	case KEY_POWER:
 862:apps/rssi/main.c **** 		if (mode == MODE_ARFCN)
 863:apps/rssi/main.c **** 			exit_arfcn();
 864:apps/rssi/main.c **** 		else if (mode == MODE_SYNC)
 865:apps/rssi/main.c **** 			exit_sync();
 866:apps/rssi/main.c **** 		else if (mode == MODE_RACH)
 867:apps/rssi/main.c **** 			exit_rach();
 868:apps/rssi/main.c **** 		else if (mode == MODE_SPECTRUM)
 869:apps/rssi/main.c **** 			toggle_spectrum();
 870:apps/rssi/main.c **** 		break;
 871:apps/rssi/main.c **** 	case KEY_STAR:
 872:apps/rssi/main.c **** 		if (mode == MODE_MAIN || mode == MODE_SPECTRUM)
 873:apps/rssi/main.c **** 			toggle_spectrum();
 874:apps/rssi/main.c **** 		break;
 875:apps/rssi/main.c **** 	default:
 876:apps/rssi/main.c **** 		break;
 877:apps/rssi/main.c **** 	}
 878:apps/rssi/main.c **** 
 879:apps/rssi/main.c **** 	key_code = KEY_INV;
 880:apps/rssi/main.c **** }
 881:apps/rssi/main.c **** 
 882:apps/rssi/main.c **** static void handle_tone(void)
 883:apps/rssi/main.c **** {
 884:apps/rssi/main.c **** 	unsigned long elapsed = jiffies - tone_time;
 885:apps/rssi/main.c **** 
 886:apps/rssi/main.c **** 	if (!tone_on) {
 887:apps/rssi/main.c **** 		if (!tone || mode != MODE_MAIN)
 888:apps/rssi/main.c **** 			return;
 889:apps/rssi/main.c **** 		/* wait depending on power level */
 890:apps/rssi/main.c **** 		if (elapsed < (uint8_t)(63-power))
 891:apps/rssi/main.c **** 			return;
 892:apps/rssi/main.c **** 		buzzer_volume(tone);
 893:apps/rssi/main.c **** 		buzzer_note(NOTE(NOTE_C, OCTAVE_5));
 894:apps/rssi/main.c **** 		tone_time = jiffies;
 895:apps/rssi/main.c **** 		tone_on = 1;
 896:apps/rssi/main.c **** 		return;
 897:apps/rssi/main.c **** 	}
 898:apps/rssi/main.c **** 
 899:apps/rssi/main.c **** 	if (elapsed >= TONE_JIFFIES) {
 900:apps/rssi/main.c **** 		tone_on = 0;
 901:apps/rssi/main.c **** 		tone_time = jiffies;
 902:apps/rssi/main.c **** 		buzzer_volume(0);
 903:apps/rssi/main.c **** 	}
 904:apps/rssi/main.c **** }
 905:apps/rssi/main.c **** 
 906:apps/rssi/main.c **** /* PM handling */
 907:apps/rssi/main.c **** 
 908:apps/rssi/main.c **** static void handle_pm(void)
 909:apps/rssi/main.c **** {
 910:apps/rssi/main.c **** 	/* start power measurement */
 911:apps/rssi/main.c **** 	if (pm_mode == PM_IDLE && (mode == MODE_MAIN || mode == MODE_SPECTRUM)) {
 912:apps/rssi/main.c **** 		struct msgb *msg = l1ctl_msgb_alloc(L1CTL_PM_REQ);
 913:apps/rssi/main.c **** 		struct l1ctl_pm_req *pm;
 914:apps/rssi/main.c **** 		uint16_t a, e;
 915:apps/rssi/main.c **** 
 916:apps/rssi/main.c **** 		pm = (struct l1ctl_pm_req *) msgb_put(msg, sizeof(*pm));
 917:apps/rssi/main.c **** 		pm->type = 1;
 918:apps/rssi/main.c **** 		if (mode == MODE_MAIN) {
 919:apps/rssi/main.c **** 			a = arfcn;
 920:apps/rssi/main.c **** 			if (pcs && arfcn >= PCS_MIN && arfcn <= PCS_MAX)
 921:apps/rssi/main.c **** 				a |= ARFCN_PCS;
 922:apps/rssi/main.c **** 			if (uplink)
 923:apps/rssi/main.c **** 				a |= ARFCN_UPLINK;
 924:apps/rssi/main.c **** 			e = a;
 925:apps/rssi/main.c **** 			pm_mode = PM_SENT;
 926:apps/rssi/main.c **** 		}
 927:apps/rssi/main.c **** 		if (mode == MODE_SPECTRUM) {
 928:apps/rssi/main.c **** 			if (pcs && arfcn >= PCS_MIN && arfcn <= PCS_MAX) {
 929:apps/rssi/main.c **** 				a = PCS_MIN | ARFCN_PCS;
 930:apps/rssi/main.c **** 				e = PCS_MAX | ARFCN_PCS;
 931:apps/rssi/main.c **** 			} else {
 932:apps/rssi/main.c **** 				a = band->min;
 933:apps/rssi/main.c **** 				e = band->max;
 934:apps/rssi/main.c **** 			}
 935:apps/rssi/main.c **** 			pm_mode = PM_RANGE_SENT;
 936:apps/rssi/main.c **** 		}
 937:apps/rssi/main.c **** 		if (uplink) {
 938:apps/rssi/main.c **** 			a |= ARFCN_UPLINK;
 939:apps/rssi/main.c **** 			e |= ARFCN_UPLINK;
 940:apps/rssi/main.c **** 		}
 941:apps/rssi/main.c **** 		pm->range.band_arfcn_from = htons(a);
 942:apps/rssi/main.c **** 		pm->range.band_arfcn_to = htons(e);
 943:apps/rssi/main.c **** 
 944:apps/rssi/main.c **** 		l1a_l23_rx(SC_DLCI_L1A_L23, msg);
 945:apps/rssi/main.c **** 
 946:apps/rssi/main.c **** 		return;
 947:apps/rssi/main.c **** 	}
 948:apps/rssi/main.c **** 
 949:apps/rssi/main.c **** 	if (pm_mode == PM_RESULT) {
 950:apps/rssi/main.c **** 		pm_mode = PM_IDLE;
 951:apps/rssi/main.c **** 		if (pm_count == pm_max) {
 952:apps/rssi/main.c **** 			int i = 0;
 953:apps/rssi/main.c **** 			int sum = 0;
 954:apps/rssi/main.c **** 
 955:apps/rssi/main.c **** 			if (uplink) {
 956:apps/rssi/main.c **** 				/* find max */
 957:apps/rssi/main.c **** 				for (i = 0; i < pm_count; i++) {
 958:apps/rssi/main.c **** 					if (pm_meas[i] > sum)
 959:apps/rssi/main.c **** 						sum = pm_meas[i];
 960:apps/rssi/main.c **** 				}
 961:apps/rssi/main.c **** 				power = sum;
 962:apps/rssi/main.c **** 			} else {
 963:apps/rssi/main.c **** 				for (i = 0; i < pm_count; i++)
 964:apps/rssi/main.c **** 					sum += pm_meas[i];
 965:apps/rssi/main.c **** 				power = sum / pm_count;
 966:apps/rssi/main.c **** 			}
 967:apps/rssi/main.c **** 			if (power > max_power)
 968:apps/rssi/main.c **** 				max_power = power;
 969:apps/rssi/main.c **** 			pm_count = 0;
 970:apps/rssi/main.c **** 			pm_max = (uplink) ? NUM_PM_UL : NUM_PM_DL;
 971:apps/rssi/main.c **** 			if (!tone_on)
 972:apps/rssi/main.c **** 				refresh_display();
 973:apps/rssi/main.c **** 		}
 974:apps/rssi/main.c **** 		return;
 975:apps/rssi/main.c **** 	}
 976:apps/rssi/main.c **** 
 977:apps/rssi/main.c **** 	if (pm_mode == PM_RANGE_RESULT) {
 978:apps/rssi/main.c **** 		pm_mode = PM_IDLE;
 979:apps/rssi/main.c **** 		refresh_display();
 980:apps/rssi/main.c **** 		buzzer_volume(tone);
 981:apps/rssi/main.c **** 		buzzer_note(NOTE(NOTE_C, OCTAVE_5));
 982:apps/rssi/main.c **** 		tone_time = jiffies;
 983:apps/rssi/main.c **** 		tone_on = 1;
 984:apps/rssi/main.c **** 		return;
 985:apps/rssi/main.c **** 	}
 986:apps/rssi/main.c **** }
 987:apps/rssi/main.c **** 
 988:apps/rssi/main.c **** /* sync / SI */
 989:apps/rssi/main.c **** 
 990:apps/rssi/main.c **** static void enter_sync(void)
 991:apps/rssi/main.c **** {
 992:apps/rssi/main.c **** 	struct msgb *msg = l1ctl_msgb_alloc(L1CTL_FBSB_REQ);
 993:apps/rssi/main.c **** 	struct l1ctl_fbsb_req *req;
 994:apps/rssi/main.c **** 	uint16_t a = arfcn;
 995:apps/rssi/main.c **** 
 996:apps/rssi/main.c **** 	l1s_reset();
 997:apps/rssi/main.c **** 	l1s_reset_hw();
 998:apps/rssi/main.c **** 	pm_count = 0;
 999:apps/rssi/main.c **** 	pm_mode = PM_IDLE;
1000:apps/rssi/main.c **** 
1001:apps/rssi/main.c **** 	req = (struct l1ctl_fbsb_req *) msgb_put(msg, sizeof(*req));
1002:apps/rssi/main.c **** 	if (pcs && arfcn >= PCS_MIN && arfcn <= PCS_MAX)
1003:apps/rssi/main.c **** 		a |= ARFCN_PCS;
1004:apps/rssi/main.c **** 	req->band_arfcn = htons(a);
1005:apps/rssi/main.c **** 	req->timeout = htons(100);
1006:apps/rssi/main.c **** 	/* Threshold when to consider FB_MODE1: 4kHz - 1kHz */
1007:apps/rssi/main.c **** 	req->freq_err_thresh1 = htons(11000 - 1000);
1008:apps/rssi/main.c **** 	/* Threshold when to consider SCH: 1kHz - 200Hz */
1009:apps/rssi/main.c **** 	req->freq_err_thresh2 = htons(1000 - 200);
1010:apps/rssi/main.c **** 	/* not used yet! */
1011:apps/rssi/main.c **** 	req->num_freqerr_avg = 3;
1012:apps/rssi/main.c **** 	req->flags = L1CTL_FBSB_F_FB01SB;
1013:apps/rssi/main.c **** 	req->sync_info_idx = 0;
1014:apps/rssi/main.c **** 	req->ccch_mode = CCCH_MODE_NONE;
1015:apps/rssi/main.c **** 	l1a_l23_rx(SC_DLCI_L1A_L23, msg);
1016:apps/rssi/main.c **** 
1017:apps/rssi/main.c **** 	mode = MODE_SYNC;
1018:apps/rssi/main.c **** 	memset(ul_levels, 0, sizeof(ul_levels));
1019:apps/rssi/main.c **** 	si_new = 0;
1020:apps/rssi/main.c **** 	ul_new = 0;
1021:apps/rssi/main.c **** 	ul_arfcn = arfcn;
1022:apps/rssi/main.c **** 	si_1[2] = 0;
1023:apps/rssi/main.c **** 	si_2[2] = 0;
1024:apps/rssi/main.c **** 	si_2bis[2] = 0;
1025:apps/rssi/main.c **** 	si_2ter[2] = 0;
1026:apps/rssi/main.c **** 	si_3[2] = 0;
1027:apps/rssi/main.c **** 	si_4[2] = 0;
1028:apps/rssi/main.c **** 	mcc = mnc = lac = 0;
1029:apps/rssi/main.c **** 	ccch_conf = -1;
1030:apps/rssi/main.c **** 	memset(freq, 0, sizeof(freq));
1031:apps/rssi/main.c **** 	cursor = 0;
1032:apps/rssi/main.c **** 	nb_num = 0;
1033:apps/rssi/main.c **** 	sync_msg = "trying";
1034:apps/rssi/main.c **** 	refresh_display();
1035:apps/rssi/main.c **** }
1036:apps/rssi/main.c **** 
1037:apps/rssi/main.c **** static void exit_sync(void)
1038:apps/rssi/main.c **** {
1039:apps/rssi/main.c **** 	l1s_reset();
1040:apps/rssi/main.c **** 	l1s_reset_hw();
1041:apps/rssi/main.c **** 	pm_count = 0;
1042:apps/rssi/main.c **** 	pm_mode = PM_IDLE;
1043:apps/rssi/main.c **** 	mode = MODE_MAIN;
1044:apps/rssi/main.c **** }
1045:apps/rssi/main.c **** 
1046:apps/rssi/main.c **** int gsm48_decode_lai(struct gsm48_loc_area_id *lai, uint16_t *_mcc,
1047:apps/rssi/main.c **** uint16_t *_mnc, uint16_t *_lac)
1048:apps/rssi/main.c **** {
1049:apps/rssi/main.c **** 	*_mcc = ((lai->digits[0] & 0x0f) << 8)
1050:apps/rssi/main.c **** 	 | (lai->digits[0] & 0xf0)
1051:apps/rssi/main.c **** 	 | (lai->digits[1] & 0x0f);
1052:apps/rssi/main.c **** 	*_mnc = ((lai->digits[2] & 0x0f) << 8)
1053:apps/rssi/main.c **** 	 | (lai->digits[2] & 0xf0)
1054:apps/rssi/main.c **** 	 | ((lai->digits[1] & 0xf0) >> 4);
1055:apps/rssi/main.c **** 	*_lac = ntohs(lai->lac);
1056:apps/rssi/main.c **** 
1057:apps/rssi/main.c **** 	return 0;
1058:apps/rssi/main.c **** }
1059:apps/rssi/main.c **** 
1060:apps/rssi/main.c **** static void request_ul_levels(uint16_t a)
1061:apps/rssi/main.c **** {
1062:apps/rssi/main.c **** 	struct msgb *msg = l1ctl_msgb_alloc(L1CTL_NEIGH_PM_REQ);
1063:apps/rssi/main.c **** 	struct l1ctl_neigh_pm_req *pm_req =
1064:apps/rssi/main.c **** 		(struct l1ctl_neigh_pm_req *) msgb_put(msg, sizeof(*pm_req));
1065:apps/rssi/main.c **** 	int i;
1066:apps/rssi/main.c **** 
1067:apps/rssi/main.c **** 	if (pcs && a >= PCS_MIN && a <= PCS_MAX)
1068:apps/rssi/main.c **** 		a |= ARFCN_PCS;
1069:apps/rssi/main.c **** 	if (uplink)
1070:apps/rssi/main.c **** 		a |= ARFCN_UPLINK;
1071:apps/rssi/main.c **** 	pm_req->n = 8;
1072:apps/rssi/main.c **** 	for (i = 0; i < 8; i++) {
1073:apps/rssi/main.c **** 		pm_req->band_arfcn[i] = htons(a);
1074:apps/rssi/main.c **** 		pm_req->tn[i] = i;
1075:apps/rssi/main.c **** 	}
1076:apps/rssi/main.c **** 	l1a_l23_rx(SC_DLCI_L1A_L23, msg);
1077:apps/rssi/main.c **** }
1078:apps/rssi/main.c **** 
1079:apps/rssi/main.c **** static void handle_sync(void)
1080:apps/rssi/main.c **** {
1081:apps/rssi/main.c **** 	struct gsm48_system_information_type_1 *si1;
1082:apps/rssi/main.c **** 	struct gsm48_system_information_type_2 *si2;
1083:apps/rssi/main.c **** 	struct gsm48_system_information_type_2bis *si2bis;
1084:apps/rssi/main.c **** 	struct gsm48_system_information_type_2ter *si2ter;
1085:apps/rssi/main.c **** 	struct gsm48_system_information_type_3 *si3;
1086:apps/rssi/main.c **** 	struct gsm48_system_information_type_4 *si4;
1087:apps/rssi/main.c **** 
1088:apps/rssi/main.c **** 	if (mode != MODE_SYNC)
1089:apps/rssi/main.c **** 		return;
1090:apps/rssi/main.c **** 
1091:apps/rssi/main.c **** 	/* once we synced, we take the result and request UL measurement */
1092:apps/rssi/main.c **** 	if (sync_result) {
1093:apps/rssi/main.c **** 		uint16_t a = ul_arfcn;
1094:apps/rssi/main.c **** 
1095:apps/rssi/main.c **** 		sync_msg = sync_result;
1096:apps/rssi/main.c **** 		sync_result = NULL;
1097:apps/rssi/main.c **** 		refresh_display();
1098:apps/rssi/main.c **** 
1099:apps/rssi/main.c **** 		if (sync_msg[0] != 'o')
1100:apps/rssi/main.c **** 			return;
1101:apps/rssi/main.c **** 
1102:apps/rssi/main.c **** 		request_ul_levels(a);
1103:apps/rssi/main.c **** 
1104:apps/rssi/main.c **** 		return;
1105:apps/rssi/main.c **** 	}
1106:apps/rssi/main.c **** 
1107:apps/rssi/main.c **** 	if (tone_on)
1108:apps/rssi/main.c **** 		return;
1109:apps/rssi/main.c **** 
1110:apps/rssi/main.c **** 	/* no UL result, no SI result */
1111:apps/rssi/main.c **** 	if (!ul_new && !(si_new & 0x100))
1112:apps/rssi/main.c **** 		return;
1113:apps/rssi/main.c **** 
1114:apps/rssi/main.c **** 	/* new UL result */
1115:apps/rssi/main.c **** 	if (ul_new) {
1116:apps/rssi/main.c **** 		ul_new = 0;
1117:apps/rssi/main.c **** 		if (cursor < 0)
1118:apps/rssi/main.c **** 			refresh_display();
1119:apps/rssi/main.c **** 		return;
1120:apps/rssi/main.c **** 	}
1121:apps/rssi/main.c **** 
1122:apps/rssi/main.c **** 	/* decode si */
1123:apps/rssi/main.c **** 	switch (si_new & 0xff) {
1124:apps/rssi/main.c **** 	case GSM48_MT_RR_SYSINFO_1:
1125:apps/rssi/main.c **** 		si1 = (struct gsm48_system_information_type_1 *)si_1;
1126:apps/rssi/main.c **** 		gsm48_decode_freq_list(freq, si1->cell_channel_description,
1127:apps/rssi/main.c **** 	                sizeof(si1->cell_channel_description), 0xce,
1128:apps/rssi/main.c **** 					FREQ_TYPE_SERV);
1129:apps/rssi/main.c **** 		break;
1130:apps/rssi/main.c **** 	case GSM48_MT_RR_SYSINFO_2:
1131:apps/rssi/main.c **** 		si2 = (struct gsm48_system_information_type_2 *)si_2;
1132:apps/rssi/main.c **** 		gsm48_decode_freq_list(freq, si2->bcch_frequency_list,
1133:apps/rssi/main.c **** 	                sizeof(si2->bcch_frequency_list), 0xce,
1134:apps/rssi/main.c **** 					FREQ_TYPE_NCELL_2);
1135:apps/rssi/main.c **** 		break;
1136:apps/rssi/main.c **** 	case GSM48_MT_RR_SYSINFO_2bis:
1137:apps/rssi/main.c **** 		si2bis = (struct gsm48_system_information_type_2bis *)si_2bis;
1138:apps/rssi/main.c **** 		gsm48_decode_freq_list(freq, si2bis->bcch_frequency_list,
1139:apps/rssi/main.c **** 	                sizeof(si2bis->bcch_frequency_list), 0xce,
1140:apps/rssi/main.c **** 					FREQ_TYPE_NCELL_2bis);
1141:apps/rssi/main.c **** 		break;
1142:apps/rssi/main.c **** 	case GSM48_MT_RR_SYSINFO_2ter:
1143:apps/rssi/main.c **** 		si2ter = (struct gsm48_system_information_type_2ter *)si_2ter;
1144:apps/rssi/main.c **** 		gsm48_decode_freq_list(freq, si2ter->ext_bcch_frequency_list,
1145:apps/rssi/main.c **** 	                sizeof(si2ter->ext_bcch_frequency_list), 0x8e,
1146:apps/rssi/main.c **** 					FREQ_TYPE_NCELL_2ter);
1147:apps/rssi/main.c **** 		break;
1148:apps/rssi/main.c **** 	case GSM48_MT_RR_SYSINFO_3:
1149:apps/rssi/main.c **** 		si3 = (struct gsm48_system_information_type_3 *)si_3;
1150:apps/rssi/main.c **** 		gsm48_decode_lai(&si3->lai, &mcc, &mnc, &lac);
1151:apps/rssi/main.c **** 		cell_id = ntohs(si3->cell_identity);
1152:apps/rssi/main.c **** 		if (ccch_conf < 0) {
1153:apps/rssi/main.c **** 			struct msgb *msg =
1154:apps/rssi/main.c **** 				l1ctl_msgb_alloc(L1CTL_CCCH_MODE_REQ);
1155:apps/rssi/main.c **** 			struct l1ctl_ccch_mode_req *req =
1156:apps/rssi/main.c **** 				(struct l1ctl_ccch_mode_req *)
1157:apps/rssi/main.c **** 					msgb_put(msg, sizeof(*req));
1158:apps/rssi/main.c **** 
1159:apps/rssi/main.c **** 			ccch_conf = si3->control_channel_desc.ccch_conf;
1160:apps/rssi/main.c **** 			req->ccch_mode = (ccch_conf == 1)
1161:apps/rssi/main.c **** 					? CCCH_MODE_COMBINED
1162:apps/rssi/main.c **** 					: CCCH_MODE_NON_COMBINED;
1163:apps/rssi/main.c **** 			printf("ccch_mode=%d\n", ccch_conf);
1164:apps/rssi/main.c **** 
1165:apps/rssi/main.c **** 			l1a_l23_rx(SC_DLCI_L1A_L23, msg);
1166:apps/rssi/main.c **** 		}
1167:apps/rssi/main.c **** 		break;
1168:apps/rssi/main.c **** 	case GSM48_MT_RR_SYSINFO_4:
1169:apps/rssi/main.c **** 		si4 = (struct gsm48_system_information_type_4 *)si_4;
1170:apps/rssi/main.c **** 		gsm48_decode_lai(&si4->lai, &mcc, &mnc, &lac);
1171:apps/rssi/main.c **** 		break;
1172:apps/rssi/main.c **** 	}
1173:apps/rssi/main.c **** 
1174:apps/rssi/main.c **** 	if (cursor >= 0)
1175:apps/rssi/main.c **** 		refresh_display();
1176:apps/rssi/main.c **** 
1177:apps/rssi/main.c **** 	/* tone depends on successfully received BCCH */
1178:apps/rssi/main.c **** 	buzzer_volume(tone);
1179:apps/rssi/main.c **** 	tone_time = jiffies;
1180:apps/rssi/main.c **** 	tone_on = 1;
1181:apps/rssi/main.c **** 	if ((si_new & 0xff) == 0xff)
1182:apps/rssi/main.c **** 		buzzer_note(NOTE(NOTE_C, OCTAVE_2));
1183:apps/rssi/main.c **** 	else
1184:apps/rssi/main.c **** 		buzzer_note(NOTE(NOTE_C, OCTAVE_5));
1185:apps/rssi/main.c **** 	si_new = 0;
1186:apps/rssi/main.c **** }
1187:apps/rssi/main.c **** 
1188:apps/rssi/main.c **** static void enter_rach(void)
1189:apps/rssi/main.c **** {
1190:apps/rssi/main.c **** 	if (ccch_conf < 0)
1191:apps/rssi/main.c **** 		return;
1192:apps/rssi/main.c **** 
1193:apps/rssi/main.c **** 	if (rach)
1194:apps/rssi/main.c **** 		return;
1195:apps/rssi/main.c **** 
1196:apps/rssi/main.c **** #ifndef CONFIG_TX_ENABLE
1197:apps/rssi/main.c **** 	assign = ASSIGN_NO_TX;
1198:apps/rssi/main.c **** 	mode = MODE_RACH;
1199:apps/rssi/main.c **** 	/* display refresh is done by rach handler */
1200:apps/rssi/main.c **** #else
1201:apps/rssi/main.c **** 	struct msgb *msg1 = l1ctl_msgb_alloc(L1CTL_NEIGH_PM_REQ);
1202:apps/rssi/main.c **** 	struct msgb *msg2 = l1ctl_msgb_alloc(L1CTL_RACH_REQ);
1203:apps/rssi/main.c **** 	struct l1ctl_neigh_pm_req *pm_req = (struct l1ctl_neigh_pm_req *)
1204:apps/rssi/main.c **** 			msgb_put(msg1, sizeof(*pm_req));
1205:apps/rssi/main.c **** 	struct l1ctl_info_ul *ul = (struct l1ctl_info_ul *)
1206:apps/rssi/main.c **** 			msgb_put(msg2, sizeof(*ul));;
1207:apps/rssi/main.c **** 	struct l1ctl_rach_req *rach_req = (struct l1ctl_rach_req *)
1208:apps/rssi/main.c **** 			msgb_put(msg2, sizeof(*rach_req));
1209:apps/rssi/main.c **** 
1210:apps/rssi/main.c **** 	l1s.tx_power = 0;
1211:apps/rssi/main.c **** 
1212:apps/rssi/main.c **** 	pm_req->n = 0; /* disable */
1213:apps/rssi/main.c **** 
1214:apps/rssi/main.c **** 	rach_ra = 0x00;
1215:apps/rssi/main.c **** 	rach_req->ra = rach_ra;
1216:apps/rssi/main.c **** 	rach_req->offset = 0;
1217:apps/rssi/main.c **** 	rach_req->combined = (ccch_conf == 1);
1218:apps/rssi/main.c **** 
1219:apps/rssi/main.c **** 	l1a_l23_rx(SC_DLCI_L1A_L23, msg1);
1220:apps/rssi/main.c **** 	l1a_l23_rx(SC_DLCI_L1A_L23, msg2);
1221:apps/rssi/main.c **** 	rach = 1;
1222:apps/rssi/main.c **** 	rach_when = jiffies;
1223:apps/rssi/main.c **** 	assign = ASSIGN_NONE;
1224:apps/rssi/main.c **** 	mode = MODE_RACH;
1225:apps/rssi/main.c **** 	refresh_display();
1226:apps/rssi/main.c **** #endif
1227:apps/rssi/main.c **** 
1228:apps/rssi/main.c **** }
1229:apps/rssi/main.c **** 
1230:apps/rssi/main.c **** static void exit_rach(void)
1231:apps/rssi/main.c **** {
1232:apps/rssi/main.c **** 	rach = 0;
1233:apps/rssi/main.c **** 
1234:apps/rssi/main.c **** 	request_ul_levels(ul_arfcn);
1235:apps/rssi/main.c **** 
1236:apps/rssi/main.c **** 	mode = MODE_SYNC;
1237:apps/rssi/main.c **** 	refresh_display();
1238:apps/rssi/main.c **** }
1239:apps/rssi/main.c **** 
1240:apps/rssi/main.c **** static void handle_assign(void)
1241:apps/rssi/main.c **** {
1242:apps/rssi/main.c **** 	if (mode != MODE_RACH)
1243:apps/rssi/main.c **** 		return;
1244:apps/rssi/main.c **** 
1245:apps/rssi/main.c **** 	if (assign == ASSIGN_NONE) {
1246:apps/rssi/main.c **** 		unsigned long elapsed = jiffies - rach_when;
1247:apps/rssi/main.c **** 
1248:apps/rssi/main.c **** 		if (!rach)
1249:apps/rssi/main.c **** 			return;
1250:apps/rssi/main.c **** 		if (elapsed < HZ * 2)
1251:apps/rssi/main.c **** 			return;
1252:apps/rssi/main.c **** 		assign = ASSIGN_TIMEOUT;
1253:apps/rssi/main.c **** 		rach = 0;
1254:apps/rssi/main.c **** 	}
1255:apps/rssi/main.c **** 
1256:apps/rssi/main.c **** 	refresh_display();
1257:apps/rssi/main.c **** 	assign = ASSIGN_NONE;
1258:apps/rssi/main.c **** }
1259:apps/rssi/main.c **** 
1260:apps/rssi/main.c **** /* Main Program */
1261:apps/rssi/main.c **** const char *hr = "======================================================================\n";
1262:apps/rssi/main.c **** 
1263:apps/rssi/main.c **** /* match request reference agains request history */
1264:apps/rssi/main.c **** static int gsm48_match_ra(struct gsm48_req_ref *ref)
1265:apps/rssi/main.c **** {
 169              		.loc 2 1265 0
 170              		.cfi_startproc
 171              		@ Function supports interworking.
 172              		@ args = 0, pretend = 0, frame = 0
 173              		@ frame_needed = 0, uses_anonymous_args = 0
 174              		@ link register save eliminated.
 175              	.LVL10:
1266:apps/rssi/main.c **** 	uint8_t ia_t1, ia_t2, ia_t3;
1267:apps/rssi/main.c **** 	uint8_t cr_t1, cr_t2, cr_t3;
1268:apps/rssi/main.c **** 
1269:apps/rssi/main.c **** 	if (rach && ref->ra == rach_ra) {
 176              		.loc 2 1269 0
 177 0000 94309FE5 		ldr	r3, .L17
 178 0004 003093E5 		ldr	r3, [r3]
 179 0008 000053E3 		cmp	r3, #0
1265:apps/rssi/main.c **** {
 180              		.loc 2 1265 0
 181 000c F0002DE9 		stmfd	sp!, {r4, r5, r6, r7}
 182              	.LCFI3:
 183              		.cfi_def_cfa_offset 16
 184              		.cfi_offset 4, -16
 185              		.cfi_offset 5, -12
 186              		.cfi_offset 6, -8
 187              		.cfi_offset 7, -4
1270:apps/rssi/main.c **** 		ia_t1 = ref->t1;
1271:apps/rssi/main.c **** 		ia_t2 = ref->t2;
1272:apps/rssi/main.c **** 		ia_t3 = (ref->t3_high << 3) | ref->t3_low;
1273:apps/rssi/main.c **** 		ref = &rach_ref;
1274:apps/rssi/main.c **** 		cr_t1 = ref->t1;
1275:apps/rssi/main.c **** 		cr_t2 = ref->t2;
1276:apps/rssi/main.c **** 		cr_t3 = (ref->t3_high << 3) | ref->t3_low;
1277:apps/rssi/main.c **** 		if (ia_t1 == cr_t1 && ia_t2 == cr_t2 && ia_t3 == cr_t3)
1278:apps/rssi/main.c **** 			return 1;
1279:apps/rssi/main.c **** 	}
1280:apps/rssi/main.c **** 
1281:apps/rssi/main.c **** 	return 0;
 188              		.loc 2 1281 0
 189 0010 0300A001 		moveq	r0, r3
 190              	.LVL11:
1269:apps/rssi/main.c **** 	if (rach && ref->ra == rach_ra) {
 191              		.loc 2 1269 0
 192 0014 1E00000A 		beq	.L13
1269:apps/rssi/main.c **** 	if (rach && ref->ra == rach_ra) {
 193              		.loc 2 1269 0 is_stmt 0 discriminator 1
 194 0018 80309FE5 		ldr	r3, .L17+4
 195 001c 0020D0E5 		ldrb	r2, [r0]	@ zero_extendqisi2
 196 0020 0030D3E5 		ldrb	r3, [r3]	@ zero_extendqisi2
 197 0024 030052E1 		cmp	r2, r3
 198              		.loc 2 1281 0 is_stmt 1 discriminator 1
 199 0028 0000A013 		movne	r0, #0
1269:apps/rssi/main.c **** 	if (rach && ref->ra == rach_ra) {
 200              		.loc 2 1269 0 discriminator 1
 201 002c 1800001A 		bne	.L13
 202              	.LVL12:
1276:apps/rssi/main.c **** 		cr_t3 = (ref->t3_high << 3) | ref->t3_low;
 203              		.loc 2 1276 0
 204 0030 6C309FE5 		ldr	r3, .L17+8
 205 0034 01C0D3E5 		ldrb	ip, [r3, #1]	@ zero_extendqisi2
1272:apps/rssi/main.c **** 		ia_t3 = (ref->t3_high << 3) | ref->t3_low;
 206              		.loc 2 1272 0
 207 0038 0110D0E5 		ldrb	r1, [r0, #1]	@ zero_extendqisi2
 208 003c 0220D0E5 		ldrb	r2, [r0, #2]	@ zero_extendqisi2
1276:apps/rssi/main.c **** 		cr_t3 = (ref->t3_high << 3) | ref->t3_low;
 209              		.loc 2 1276 0
 210 0040 0230D3E5 		ldrb	r3, [r3, #2]	@ zero_extendqisi2
 211 0044 07500CE2 		and	r5, ip, #7
1277:apps/rssi/main.c **** 		if (ia_t1 == cr_t1 && ia_t2 == cr_t2 && ia_t3 == cr_t3)
 212              		.loc 2 1277 0
 213 0048 ACC1A0E1 		mov	ip, ip, lsr #3
 214 004c A1015CE1 		cmp	ip, r1, lsr #3
1272:apps/rssi/main.c **** 		ia_t3 = (ref->t3_high << 3) | ref->t3_low;
 215              		.loc 2 1272 0
 216 0050 077001E2 		and	r7, r1, #7
1276:apps/rssi/main.c **** 		cr_t3 = (ref->t3_high << 3) | ref->t3_low;
 217              		.loc 2 1276 0
 218 0054 A342A0E1 		mov	r4, r3, lsr #5
1277:apps/rssi/main.c **** 		if (ia_t1 == cr_t1 && ia_t2 == cr_t2 && ia_t3 == cr_t3)
 219              		.loc 2 1277 0
 220 0058 0010A013 		movne	r1, #0
 221 005c 0110A003 		moveq	r1, #1
1271:apps/rssi/main.c **** 		ia_t2 = ref->t2;
 222              		.loc 2 1271 0
 223 0060 1F0002E2 		and	r0, r2, #31
 224              	.LVL13:
1275:apps/rssi/main.c **** 		cr_t2 = ref->t2;
 225              		.loc 2 1275 0
 226 0064 1F3003E2 		and	r3, r3, #31
1277:apps/rssi/main.c **** 		if (ia_t1 == cr_t1 && ia_t2 == cr_t2 && ia_t3 == cr_t3)
 227              		.loc 2 1277 0
 228 0068 030050E1 		cmp	r0, r3
 229 006c 0000A013 		movne	r0, #0
 230 0070 01000102 		andeq	r0, r1, #1
 231 0074 000050E3 		cmp	r0, #0
1272:apps/rssi/main.c **** 		ia_t3 = (ref->t3_high << 3) | ref->t3_low;
 232              		.loc 2 1272 0
 233 0078 A262A0E1 		mov	r6, r2, lsr #5
 234              	.LVL14:
1277:apps/rssi/main.c **** 		if (ia_t1 == cr_t1 && ia_t2 == cr_t2 && ia_t3 == cr_t3)
 235              		.loc 2 1277 0
 236 007c 0400000A 		beq	.L13
1277:apps/rssi/main.c **** 		if (ia_t1 == cr_t1 && ia_t2 == cr_t2 && ia_t3 == cr_t3)
 237              		.loc 2 1277 0 is_stmt 0 discriminator 1
 238 0080 870186E1 		orr	r0, r6, r7, asl #3
 239 0084 853184E1 		orr	r3, r4, r5, asl #3
 240 0088 033050E0 		subs	r3, r0, r3
 241 008c 000073E2 		rsbs	r0, r3, #0
 242 0090 0300B0E0 		adcs	r0, r0, r3
 243              	.LVL15:
 244              	.L13:
1282:apps/rssi/main.c **** }
 245              		.loc 2 1282 0 is_stmt 1
 246 0094 F000BDE8 		ldmfd	sp!, {r4, r5, r6, r7}
 247 0098 1EFF2FE1 		bx	lr
 248              	.L18:
 249              		.align	2
 250              	.L17:
 251 009c 00000000 		.word	.LANCHOR0
 252 00a0 00000000 		.word	rach_ra
 253 00a4 00000000 		.word	rach_ref
 254              		.cfi_endproc
 255              	.LFE133:
 257              		.section	.text.l1a_l23_rx_cb,"ax",%progbits
 258              		.align	2
 260              	l1a_l23_rx_cb:
 261              	.LFB141:
1283:apps/rssi/main.c **** 
1284:apps/rssi/main.c **** 
1285:apps/rssi/main.c **** /* note: called from IRQ context */
1286:apps/rssi/main.c **** static void rx_imm_ass(struct msgb *msg)
1287:apps/rssi/main.c **** {
1288:apps/rssi/main.c **** 	struct gsm48_imm_ass *ia = msgb_l3(msg);
1289:apps/rssi/main.c **** 
1290:apps/rssi/main.c **** 	if (gsm48_match_ra(&ia->req_ref)) {
1291:apps/rssi/main.c **** 		assign = ASSIGN_RESULT;
1292:apps/rssi/main.c **** 		ta = ia->timing_advance;
1293:apps/rssi/main.c **** 		rach = 0;
1294:apps/rssi/main.c **** 	}
1295:apps/rssi/main.c **** }
1296:apps/rssi/main.c **** 
1297:apps/rssi/main.c **** /* note: called from IRQ context */
1298:apps/rssi/main.c **** static void rx_imm_ass_ext(struct msgb *msg)
1299:apps/rssi/main.c **** {
1300:apps/rssi/main.c **** 	struct gsm48_imm_ass_ext *ia = msgb_l3(msg);
1301:apps/rssi/main.c **** 
1302:apps/rssi/main.c **** 	if (gsm48_match_ra(&ia->req_ref1)) {
1303:apps/rssi/main.c **** 		assign = ASSIGN_RESULT;
1304:apps/rssi/main.c **** 		ta = ia->timing_advance1;
1305:apps/rssi/main.c **** 		rach = 0;
1306:apps/rssi/main.c **** 	}
1307:apps/rssi/main.c **** 	if (gsm48_match_ra(&ia->req_ref2)) {
1308:apps/rssi/main.c **** 		assign = ASSIGN_RESULT;
1309:apps/rssi/main.c **** 		ta = ia->timing_advance2;
1310:apps/rssi/main.c **** 		rach = 0;
1311:apps/rssi/main.c **** 	}
1312:apps/rssi/main.c **** }
1313:apps/rssi/main.c **** 
1314:apps/rssi/main.c **** /* note: called from IRQ context */
1315:apps/rssi/main.c **** static void rx_imm_ass_rej(struct msgb *msg)
1316:apps/rssi/main.c **** {
1317:apps/rssi/main.c **** 	struct gsm48_imm_ass_rej *ia = msgb_l3(msg);
1318:apps/rssi/main.c **** 	struct gsm48_req_ref *req_ref;
1319:apps/rssi/main.c **** 	int i;
1320:apps/rssi/main.c **** 
1321:apps/rssi/main.c **** 	for (i = 0; i < 4; i++) {
1322:apps/rssi/main.c **** 		/* request reference */
1323:apps/rssi/main.c **** 		req_ref = (struct gsm48_req_ref *)
1324:apps/rssi/main.c **** 			(((uint8_t *)&ia->req_ref1) + i * 4);
1325:apps/rssi/main.c **** 		if (gsm48_match_ra(req_ref)) {
1326:apps/rssi/main.c **** 			assign = ASSIGN_REJECT;
1327:apps/rssi/main.c **** 			rach = 0;
1328:apps/rssi/main.c **** 		}
1329:apps/rssi/main.c **** 	}
1330:apps/rssi/main.c **** }
1331:apps/rssi/main.c **** 
1332:apps/rssi/main.c **** /* note: called from IRQ context */
1333:apps/rssi/main.c **** static void rx_pch_agch(struct msgb *msg)
1334:apps/rssi/main.c **** {
1335:apps/rssi/main.c **** 	struct gsm48_system_information_type_header *sih;
1336:apps/rssi/main.c **** 
1337:apps/rssi/main.c **** 	/* store SI */
1338:apps/rssi/main.c **** 	sih = msgb_l3(msg);
1339:apps/rssi/main.c **** 	switch (sih->system_information) {
1340:apps/rssi/main.c **** 	case GSM48_MT_RR_IMM_ASS:
1341:apps/rssi/main.c **** 		rx_imm_ass(msg);
1342:apps/rssi/main.c **** 		break;
1343:apps/rssi/main.c **** 	case GSM48_MT_RR_IMM_ASS_EXT:
1344:apps/rssi/main.c **** 		rx_imm_ass_ext(msg);
1345:apps/rssi/main.c **** 		break;
1346:apps/rssi/main.c **** 	case GSM48_MT_RR_IMM_ASS_REJ:
1347:apps/rssi/main.c **** 		rx_imm_ass_rej(msg);
1348:apps/rssi/main.c **** 		break;
1349:apps/rssi/main.c **** 	}
1350:apps/rssi/main.c **** }
1351:apps/rssi/main.c **** 
1352:apps/rssi/main.c **** /* note: called from IRQ context */
1353:apps/rssi/main.c **** static void rx_bcch(struct msgb *msg)
1354:apps/rssi/main.c **** {
1355:apps/rssi/main.c **** 	struct gsm48_system_information_type_header *sih;
1356:apps/rssi/main.c **** 
1357:apps/rssi/main.c **** 	/* store SI */
1358:apps/rssi/main.c **** 	sih = msgb_l3(msg);
1359:apps/rssi/main.c **** 	switch (sih->system_information) {
1360:apps/rssi/main.c **** 	case GSM48_MT_RR_SYSINFO_1:
1361:apps/rssi/main.c **** 		memcpy(si_1, msgb_l3(msg), msgb_l3len(msg));
1362:apps/rssi/main.c **** 		break;
1363:apps/rssi/main.c **** 	case GSM48_MT_RR_SYSINFO_2:
1364:apps/rssi/main.c **** 		memcpy(si_2, msgb_l3(msg), msgb_l3len(msg));
1365:apps/rssi/main.c **** 		break;
1366:apps/rssi/main.c **** 	case GSM48_MT_RR_SYSINFO_2bis:
1367:apps/rssi/main.c **** 		memcpy(si_2bis, msgb_l3(msg), msgb_l3len(msg));
1368:apps/rssi/main.c **** 		break;
1369:apps/rssi/main.c **** 	case GSM48_MT_RR_SYSINFO_2ter:
1370:apps/rssi/main.c **** 		memcpy(si_2ter, msgb_l3(msg), msgb_l3len(msg));
1371:apps/rssi/main.c **** 		break;
1372:apps/rssi/main.c **** 	case GSM48_MT_RR_SYSINFO_3:
1373:apps/rssi/main.c **** 		memcpy(si_3, msgb_l3(msg), msgb_l3len(msg));
1374:apps/rssi/main.c **** 		break;
1375:apps/rssi/main.c **** 	case GSM48_MT_RR_SYSINFO_4:
1376:apps/rssi/main.c **** 		memcpy(si_4, msgb_l3(msg), msgb_l3len(msg));
1377:apps/rssi/main.c **** 		break;
1378:apps/rssi/main.c **** 	}
1379:apps/rssi/main.c **** 	si_new = sih->system_information | 0x100;
1380:apps/rssi/main.c **** }
1381:apps/rssi/main.c **** 
1382:apps/rssi/main.c **** /* note: called from IRQ context */
1383:apps/rssi/main.c **** static void l1a_l23_tx(struct msgb *msg)
1384:apps/rssi/main.c **** {
1385:apps/rssi/main.c **** 	struct l1ctl_hdr *l1h = (struct l1ctl_hdr *) msg->l1h;
1386:apps/rssi/main.c **** 	struct l1ctl_pm_conf *pmr;
1387:apps/rssi/main.c **** 	struct l1ctl_info_dl *dl;
1388:apps/rssi/main.c **** 	struct l1ctl_fbsb_conf *sb;
1389:apps/rssi/main.c **** 	uint8_t chan_type, chan_ts, chan_ss;
1390:apps/rssi/main.c **** 	struct l1ctl_neigh_pm_ind *pm_ind;
1391:apps/rssi/main.c **** 	struct gsm_time tm;
1392:apps/rssi/main.c **** 
1393:apps/rssi/main.c **** 	switch (l1h->msg_type) {
1394:apps/rssi/main.c **** 	case L1CTL_PM_CONF:
1395:apps/rssi/main.c **** 		if (pm_mode == PM_SENT) {
1396:apps/rssi/main.c **** 			pmr = (struct l1ctl_pm_conf *) l1h->data;
1397:apps/rssi/main.c **** 			pm_meas[pm_count] = pmr->pm[0];
1398:apps/rssi/main.c **** 			pm_count++;
1399:apps/rssi/main.c **** 			pm_mode = PM_RESULT;
1400:apps/rssi/main.c **** 		}
1401:apps/rssi/main.c **** 		if (pm_mode == PM_RANGE_SENT) {
1402:apps/rssi/main.c **** 			for (pmr = (struct l1ctl_pm_conf *) l1h->data;
1403:apps/rssi/main.c **** 				(uint8_t *) pmr < msg->tail; pmr++) {
1404:apps/rssi/main.c **** 				if (!max || pm_spectrum[ntohs(pmr->band_arfcn) & 1023] < pmr->pm[0])
1405:apps/rssi/main.c **** 					pm_spectrum[ntohs(pmr->band_arfcn) & 1023] = pmr->pm[0];
1406:apps/rssi/main.c **** 			}
1407:apps/rssi/main.c **** 			if ((l1h->flags & L1CTL_F_DONE))
1408:apps/rssi/main.c **** 				pm_mode = PM_RANGE_RESULT;
1409:apps/rssi/main.c **** 		}
1410:apps/rssi/main.c **** 		l1s.tpu_offset_correction += 5000 / NUM_PM_UL;
1411:apps/rssi/main.c **** 		break;
1412:apps/rssi/main.c **** 	case L1CTL_FBSB_CONF:
1413:apps/rssi/main.c **** 		dl = (struct l1ctl_info_dl *) l1h->data;
1414:apps/rssi/main.c **** 		sb = (struct l1ctl_fbsb_conf *) dl->payload;
1415:apps/rssi/main.c **** 		if (sb->result == 0)
1416:apps/rssi/main.c **** 			sync_result = "ok";
1417:apps/rssi/main.c **** 		else
1418:apps/rssi/main.c **** 			sync_result = "error";
1419:apps/rssi/main.c **** 		bsic = sb->bsic;
1420:apps/rssi/main.c **** 		break;
1421:apps/rssi/main.c **** 	case L1CTL_DATA_IND:
1422:apps/rssi/main.c **** 		dl = (struct l1ctl_info_dl *) l1h->data;
1423:apps/rssi/main.c **** 		msg->l2h = dl->payload;
1424:apps/rssi/main.c **** 		rsl_dec_chan_nr(dl->chan_nr, &chan_type, &chan_ss, &chan_ts);
1425:apps/rssi/main.c **** 
1426:apps/rssi/main.c **** 		power = dl->rx_level;
1427:apps/rssi/main.c **** 		if (dl->fire_crc >= 2) {
1428:apps/rssi/main.c **** 			if (chan_type == RSL_CHAN_BCCH)
1429:apps/rssi/main.c **** 				si_new = 0x1ff; /* error frame indication */
1430:apps/rssi/main.c **** 			break; /* free, but don't send to sercom */
1431:apps/rssi/main.c **** 		}
1432:apps/rssi/main.c **** 
1433:apps/rssi/main.c **** 		switch (chan_type) {
1434:apps/rssi/main.c **** 		case RSL_CHAN_BCCH:
1435:apps/rssi/main.c **** 			msg->l3h = msg->l2h;
1436:apps/rssi/main.c **** 			rx_bcch(msg);
1437:apps/rssi/main.c **** 			break;
1438:apps/rssi/main.c **** 		case RSL_CHAN_PCH_AGCH:
1439:apps/rssi/main.c **** 			msg->l3h = msg->l2h;
1440:apps/rssi/main.c **** 			rx_pch_agch(msg);
1441:apps/rssi/main.c **** 			break;
1442:apps/rssi/main.c **** 		}
1443:apps/rssi/main.c **** 		sercomm_sendmsg(SC_DLCI_L1A_L23, msg);
1444:apps/rssi/main.c **** 		return; /* msg is freed by sercom */
1445:apps/rssi/main.c **** 	case L1CTL_NEIGH_PM_IND:
1446:apps/rssi/main.c **** 		for (pm_ind = (struct l1ctl_neigh_pm_ind *) l1h->data;
1447:apps/rssi/main.c **** 			(uint8_t *) pm_ind < msg->tail; pm_ind++) {
1448:apps/rssi/main.c **** 			ul_levels[pm_ind->tn] = pm_ind->pm[0];
1449:apps/rssi/main.c **** 			/* hold max only, if max enabled and level is lower */
1450:apps/rssi/main.c **** 			if (!max || ul_levels[pm_ind->tn] > ul_max[pm_ind->tn])
1451:apps/rssi/main.c **** 				ul_max[pm_ind->tn] = ul_levels[pm_ind->tn];
1452:apps/rssi/main.c **** 			if (pm_ind->tn == 7)
1453:apps/rssi/main.c **** 				ul_new = 1;
1454:apps/rssi/main.c **** 		}
1455:apps/rssi/main.c **** 		break;
1456:apps/rssi/main.c **** 	case L1CTL_RACH_CONF:
1457:apps/rssi/main.c **** 		dl = (struct l1ctl_info_dl *) l1h->data;
1458:apps/rssi/main.c **** 		gsm_fn2gsmtime(&tm, ntohl(dl->frame_nr));
1459:apps/rssi/main.c **** 		rach_ref.t1 = tm.t1;
1460:apps/rssi/main.c **** 		rach_ref.t2 = tm.t2;
1461:apps/rssi/main.c **** 		rach_ref.t3_low = tm.t3 & 0x7;
1462:apps/rssi/main.c **** 		rach_ref.t3_high = tm.t3 >> 3;
1463:apps/rssi/main.c **** 		break;
1464:apps/rssi/main.c **** 	}
1465:apps/rssi/main.c **** 
1466:apps/rssi/main.c **** 	msgb_free(msg);
1467:apps/rssi/main.c **** 
1468:apps/rssi/main.c **** }
1469:apps/rssi/main.c **** 
1470:apps/rssi/main.c **** static void console_rx_cb(uint8_t dlci, struct msgb *msg)
1471:apps/rssi/main.c **** {
1472:apps/rssi/main.c **** 	if (dlci != SC_DLCI_CONSOLE) {
1473:apps/rssi/main.c **** 		printf("Message for unknown DLCI %u\n", dlci);
1474:apps/rssi/main.c **** 		return;
1475:apps/rssi/main.c **** 	}
1476:apps/rssi/main.c **** 
1477:apps/rssi/main.c **** 	printf("Message on console DLCI: '%s'\n", msg->data);
1478:apps/rssi/main.c **** 	msgb_free(msg);
1479:apps/rssi/main.c **** }
1480:apps/rssi/main.c **** 
1481:apps/rssi/main.c **** static void l1a_l23_rx_cb(uint8_t dlci, struct msgb *msg)
1482:apps/rssi/main.c **** {
 262              		.loc 2 1482 0
 263              		.cfi_startproc
 264              		@ Function supports interworking.
 265              		@ args = 0, pretend = 0, frame = 0
 266              		@ frame_needed = 0, uses_anonymous_args = 0
 267              	.LVL16:
 268 0000 38402DE9 		stmfd	sp!, {r3, r4, r5, lr}
 269              	.LCFI4:
 270              		.cfi_def_cfa_offset 16
 271              		.cfi_offset 3, -16
 272              		.cfi_offset 4, -12
 273              		.cfi_offset 5, -8
 274              		.cfi_offset 14, -4
 275              		.loc 2 1482 0
 276 0004 0030A0E1 		mov	r3, r0
 277 0008 0150A0E1 		mov	r5, r1
1483:apps/rssi/main.c **** 	int i;
1484:apps/rssi/main.c **** 	printf("l1a_l23_rx_cb (DLCI %d): ", dlci);
 278              		.loc 2 1484 0
 279 000c 3C009FE5 		ldr	r0, .L23
 280              	.LVL17:
 281 0010 0310A0E1 		mov	r1, r3
 282              	.LVL18:
 283 0014 FEFFFFEB 		bl	printf
 284              	.LVL19:
1485:apps/rssi/main.c **** 	for (i = 0; i < msg->len; i++)
 285              		.loc 2 1485 0
 286 0018 0040A0E3 		mov	r4, #0
 287              	.LVL20:
 288              	.L20:
 289              		.loc 2 1485 0 is_stmt 0 discriminator 1
 290 001c B633D5E1 		ldrh	r3, [r5, #54]
 291 0020 030054E1 		cmp	r4, r3
 292 0024 050000AA 		bge	.L22
1486:apps/rssi/main.c **** 		printf("%02x ", msg->data[i]);
 293              		.loc 2 1486 0 is_stmt 1 discriminator 2
 294 0028 403095E5 		ldr	r3, [r5, #64]
 295 002c 20009FE5 		ldr	r0, .L23+4
 296 0030 0410D3E7 		ldrb	r1, [r3, r4]	@ zero_extendqisi2
 297 0034 FEFFFFEB 		bl	printf
 298              	.LVL21:
1485:apps/rssi/main.c **** 	for (i = 0; i < msg->len; i++)
 299              		.loc 2 1485 0 discriminator 2
 300 0038 014084E2 		add	r4, r4, #1
 301              	.LVL22:
 302 003c F6FFFFEA 		b	.L20
 303              	.L22:
1487:apps/rssi/main.c **** 	puts("\n");
 304              		.loc 2 1487 0
 305 0040 10009FE5 		ldr	r0, .L23+8
 306 0044 FEFFFFEB 		bl	puts
 307              	.LVL23:
1488:apps/rssi/main.c **** }
 308              		.loc 2 1488 0
 309 0048 3840BDE8 		ldmfd	sp!, {r3, r4, r5, lr}
 310              	.LVL24:
 311 004c 1EFF2FE1 		bx	lr
 312              	.L24:
 313              		.align	2
 314              	.L23:
 315 0050 00000000 		.word	.LC0
 316 0054 1A000000 		.word	.LC1
 317 0058 20000000 		.word	.LC2
 318              		.cfi_endproc
 319              	.LFE141:
 321              		.global	__aeabi_uidiv
 322              		.global	__aeabi_idiv
 323              		.global	__aeabi_idivmod
 324              		.section	.text.refresh_display,"ax",%progbits
 325              		.align	2
 327              	refresh_display:
 328              	.LFB110:
 172:apps/rssi/main.c **** {
 329              		.loc 2 172 0
 330              		.cfi_startproc
 331              		@ Function supports interworking.
 332              		@ args = 0, pretend = 0, frame = 32
 333              		@ frame_needed = 0, uses_anonymous_args = 0
 334 0000 F04F2DE9 		stmfd	sp!, {r4, r5, r6, r7, r8, r9, r10, fp, lr}
 335              	.LCFI5:
 336              		.cfi_def_cfa_offset 36
 337              		.cfi_offset 4, -36
 338              		.cfi_offset 5, -32
 339              		.cfi_offset 6, -28
 340              		.cfi_offset 7, -24
 341              		.cfi_offset 8, -20
 342              		.cfi_offset 9, -16
 343              		.cfi_offset 10, -12
 344              		.cfi_offset 11, -8
 345              		.cfi_offset 14, -4
 346              	.LBB341:
 347              	.LBB342:
  56:include/fb/framebuffer.h **** 	framebuffer->clear();
 348              		.loc 1 56 0
 349 0004 AC4F9FE5 		ldr	r4, .L203
 350              	.LBE342:
 351              	.LBE341:
 174:apps/rssi/main.c **** 	int bat = battery_info.battery_percent;
 352              		.loc 2 174 0
 353 0008 AC7F9FE5 		ldr	r7, .L203+4
 354              	.LBB345:
 355              	.LBB343:
  56:include/fb/framebuffer.h **** 	framebuffer->clear();
 356              		.loc 1 56 0
 357 000c 003094E5 		ldr	r3, [r4]
 358              	.LBE343:
 359              	.LBE345:
 172:apps/rssi/main.c **** {
 360              		.loc 2 172 0
 361 0010 2CD04DE2 		sub	sp, sp, #44
 362              	.LCFI6:
 363              		.cfi_def_cfa_offset 80
 174:apps/rssi/main.c **** 	int bat = battery_info.battery_percent;
 364              		.loc 2 174 0
 365 0014 106097E5 		ldr	r6, [r7, #16]
 366              	.LVL25:
 180:apps/rssi/main.c **** 	if (mode != MODE_SPECTRUM && !(mode == MODE_SYNC && cursor < 0)) {
 367              		.loc 2 180 0
 368 0018 A05F9FE5 		ldr	r5, .L203+8
 369              	.LBB346:
 370              	.LBB344:
  56:include/fb/framebuffer.h **** 	framebuffer->clear();
 371              		.loc 1 56 0
 372 001c 0CC093E5 		ldr	ip, [r3, #12]
 373 0020 0FE0A0E1 		mov	lr, pc
 374 0024 1CFF2FE1 		bx	ip
 375              	.LVL26:
 376              	.LBE344:
 377              	.LBE346:
 378              	.LBB347:
 379              	.LBB348:
  83:include/fb/framebuffer.h **** }
  84:include/fb/framebuffer.h **** 
  85:include/fb/framebuffer.h **** static inline void
  86:include/fb/framebuffer.h **** fb_setfg(uint32_t color){
  87:include/fb/framebuffer.h **** 	framebuffer->fg_color = color;
  88:include/fb/framebuffer.h **** }
  89:include/fb/framebuffer.h **** 
  90:include/fb/framebuffer.h **** static inline void
  91:include/fb/framebuffer.h **** fb_setbg(uint32_t color){
  92:include/fb/framebuffer.h **** 	framebuffer->bg_color = color;
 380              		.loc 1 92 0
 381 0028 003094E5 		ldr	r3, [r4]
 382 002c FF24E0E3 		mvn	r2, #-16777216
 383 0030 2C2083E5 		str	r2, [r3, #44]
 384              	.LBE348:
 385              	.LBE347:
 180:apps/rssi/main.c **** 	if (mode != MODE_SPECTRUM && !(mode == MODE_SYNC && cursor < 0)) {
 386              		.loc 2 180 0
 387 0034 0420D5E5 		ldrb	r2, [r5, #4]	@ zero_extendqisi2
 388 0038 010052E3 		cmp	r2, #1
 389 003c 5E00000A 		beq	.L26
 180:apps/rssi/main.c **** 	if (mode != MODE_SPECTRUM && !(mode == MODE_SYNC && cursor < 0)) {
 390              		.loc 2 180 0 is_stmt 0 discriminator 1
 391 0040 030052E3 		cmp	r2, #3
 392 0044 0300001A 		bne	.L27
 393 0048 742F9FE5 		ldr	r2, .L203+12
 394 004c 002092E5 		ldr	r2, [r2]
 395 0050 000052E3 		cmp	r2, #0
 396 0054 580000BA 		blt	.L26
 397              	.L27:
 398              	.LVL27:
 399              	.LBB349:
 400              	.LBB350:
  87:include/fb/framebuffer.h **** 	framebuffer->fg_color = color;
 401              		.loc 1 87 0 is_stmt 1
 402 0058 FF20A0E3 		mov	r2, #255
 403 005c 282083E5 		str	r2, [r3, #40]
 404              	.LVL28:
 405              	.LBE350:
 406              	.LBE349:
 407              	.LBB351:
 408              	.LBB352:
  93:include/fb/framebuffer.h **** }
  94:include/fb/framebuffer.h **** 
  95:include/fb/framebuffer.h **** static inline void
  96:include/fb/framebuffer.h **** fb_setfont(enum fb_font_id fid){
  97:include/fb/framebuffer.h **** 	framebuffer->font = fid;
 409              		.loc 1 97 0
 410 0060 0020A0E3 		mov	r2, #0
 411 0064 3020C3E5 		strb	r2, [r3, #48]
 412              	.LVL29:
 413              	.LBE352:
 414              	.LBE351:
 415              	.LBB353:
 416              	.LBB354:
  81:include/fb/framebuffer.h **** 	framebuffer->cursor_x = x;
 417              		.loc 1 81 0
 418 0068 B422C3E1 		strh	r2, [r3, #36]	@ movhi
  82:include/fb/framebuffer.h **** 	framebuffer->cursor_y = y;
 419              		.loc 1 82 0
 420 006c 0720A0E3 		mov	r2, #7
 421 0070 B622C3E1 		strh	r2, [r3, #38]	@ movhi
 422              	.LBE354:
 423              	.LBE353:
 184:apps/rssi/main.c **** 		fb_putstr("vadimbetman RSSI", -1);
 424              		.loc 2 184 0
 425 0074 0010E0E3 		mvn	r1, #0
 426 0078 480F9FE5 		ldr	r0, .L203+16
 427 007c FEFFFFEB 		bl	fb_putstr
 428              	.LVL30:
 429              	.LBB355:
 430              	.LBB356:
  87:include/fb/framebuffer.h **** 	framebuffer->fg_color = color;
 431              		.loc 1 87 0
 432 0080 003094E5 		ldr	r3, [r4]
 433 0084 402F9FE5 		ldr	r2, .L203+20
 434              	.LBE356:
 435              	.LBE355:
 187:apps/rssi/main.c **** 		fb_gotoxy(framebuffer->width - 15, 8);
 436              		.loc 2 187 0
 437 0088 B012D3E1 		ldrh	r1, [r3, #32]
 438              	.LBB358:
 439              	.LBB357:
  87:include/fb/framebuffer.h **** 	framebuffer->fg_color = color;
 440              		.loc 1 87 0
 441 008c 282083E5 		str	r2, [r3, #40]
 442              	.LVL31:
 443              	.LBE357:
 444              	.LBE358:
 445              	.LBB359:
 446              	.LBB360:
 447              		.loc 1 97 0
 448 0090 0320A0E3 		mov	r2, #3
 449 0094 3020C3E5 		strb	r2, [r3, #48]
 450              	.LBE360:
 451              	.LBE359:
 187:apps/rssi/main.c **** 		fb_gotoxy(framebuffer->width - 15, 8);
 452              		.loc 2 187 0
 453 0098 0F2041E2 		sub	r2, r1, #15
 454              	.LBB361:
 455              	.LBB362:
  81:include/fb/framebuffer.h **** 	framebuffer->cursor_x = x;
 456              		.loc 1 81 0
 457 009c B422C3E1 		strh	r2, [r3, #36]	@ movhi
 458              	.LBE362:
 459              	.LBE361:
 188:apps/rssi/main.c **** 		if (bat >= 100 && (battery_info.flags & BATTERY_CHG_ENABLED)
 460              		.loc 2 188 0
 461 00a0 630056E3 		cmp	r6, #99
 462              	.LBB364:
 463              	.LBB363:
  82:include/fb/framebuffer.h **** 	framebuffer->cursor_y = y;
 464              		.loc 1 82 0
 465 00a4 0820A0E3 		mov	r2, #8
 466 00a8 B622C3E1 		strh	r2, [r3, #38]	@ movhi
 467              	.LBE363:
 468              	.LBE364:
 188:apps/rssi/main.c **** 		if (bat >= 100 && (battery_info.flags & BATTERY_CHG_ENABLED)
 469              		.loc 2 188 0
 470 00ac 050000DA 		ble	.L28
 189:apps/rssi/main.c **** 		 && !(battery_info.flags & BATTERY_CHARGING))
 471              		.loc 2 189 0 discriminator 1
 472 00b0 0030D7E5 		ldrb	r3, [r7]	@ zero_extendqisi2
 473 00b4 063003E2 		and	r3, r3, #6
 474 00b8 020053E3 		cmp	r3, #2
 190:apps/rssi/main.c **** 			fb_putstr("@HHBC", framebuffer->width);
 475              		.loc 2 190 0 discriminator 1
 476 00bc 0C0F9F05 		ldreq	r0, .L203+24
 189:apps/rssi/main.c **** 		 && !(battery_info.flags & BATTERY_CHARGING))
 477              		.loc 2 189 0 discriminator 1
 478 00c0 0500001A 		bne	.L29
 479 00c4 110000EA 		b	.L191
 480              	.L28:
 192:apps/rssi/main.c **** 			sprintf(text, "@%c%c%cC", (bat >= 30) ? 'B':'A',
 481              		.loc 2 192 0
 482 00c8 1D0056E3 		cmp	r6, #29
 483 00cc 4120A0D3 		movle	r2, #65
 484 00d0 B60300DA 		ble	.L31
 192:apps/rssi/main.c **** 			sprintf(text, "@%c%c%cC", (bat >= 30) ? 'B':'A',
 485              		.loc 2 192 0 is_stmt 0 discriminator 3
 486 00d4 3B0056E3 		cmp	r6, #59
 487 00d8 B30300DA 		ble	.L123
 488              	.L29:
 192:apps/rssi/main.c **** 			sprintf(text, "@%c%c%cC", (bat >= 30) ? 'B':'A',
 489              		.loc 2 192 0 discriminator 6
 490 00dc 4230A0E3 		mov	r3, #66
 491 00e0 590056E3 		cmp	r6, #89
 492 00e4 0320A0E1 		mov	r2, r3
 493 00e8 0310A0C1 		movgt	r1, r3
 494              	.LVL32:
 495 00ec 000000CA 		bgt	.L32
 496              	.L121:
 192:apps/rssi/main.c **** 			sprintf(text, "@%c%c%cC", (bat >= 30) ? 'B':'A',
 497              		.loc 2 192 0 discriminator 8
 498 00f0 4110A0E3 		mov	r1, #65
 499              	.L32:
 192:apps/rssi/main.c **** 			sprintf(text, "@%c%c%cC", (bat >= 30) ? 'B':'A',
 500              		.loc 2 192 0 discriminator 9
 501 00f4 00108DE5 		str	r1, [sp]
 502              	.LVL33:
 503 00f8 18008DE2 		add	r0, sp, #24
 504 00fc D01E9FE5 		ldr	r1, .L203+28
 505 0100 FEFFFFEB 		bl	sprintf
 506              	.LVL34:
 194:apps/rssi/main.c **** 			fb_putstr(text, framebuffer->width);
 507              		.loc 2 194 0 is_stmt 1 discriminator 9
 508 0104 003094E5 		ldr	r3, [r4]
 509 0108 B012D3E1 		ldrh	r1, [r3, #32]
 510 010c 18008DE2 		add	r0, sp, #24
 511              	.L191:
 512 0110 FEFFFFEB 		bl	fb_putstr
 513              	.LVL35:
 514              	.LBB365:
 515              	.LBB366:
  81:include/fb/framebuffer.h **** 	framebuffer->cursor_x = x;
 516              		.loc 1 81 0 discriminator 9
 517 0114 003094E5 		ldr	r3, [r4]
 518 0118 0020A0E3 		mov	r2, #0
 519 011c B422C3E1 		strh	r2, [r3, #36]	@ movhi
  82:include/fb/framebuffer.h **** 	framebuffer->cursor_y = y;
 520              		.loc 1 82 0 discriminator 9
 521 0120 0820A0E3 		mov	r2, #8
 522 0124 B622C3E1 		strh	r2, [r3, #38]	@ movhi
 523              	.LBE366:
 524              	.LBE365:
 197:apps/rssi/main.c **** 		sprintf(text, "%c%cE%c%c", (power >= 40) ? 'D':'G',
 525              		.loc 2 197 0 discriminator 9
 526 0128 A83E9FE5 		ldr	r3, .L203+32
 527 012c 0030D3E5 		ldrb	r3, [r3]	@ zero_extendqisi2
 528 0130 270053E3 		cmp	r3, #39
 529 0134 0700008A 		bhi	.L125
 197:apps/rssi/main.c **** 		sprintf(text, "%c%cE%c%c", (power >= 40) ? 'D':'G',
 530              		.loc 2 197 0 is_stmt 0 discriminator 3
 531 0138 090053E3 		cmp	r3, #9
 532 013c 4710A093 		movls	r1, #71
 533 0140 4720A0E3 		mov	r2, #71
 534 0144 0130A091 		movls	r3, r1
 535 0148 4610A083 		movhi	r1, #70
 536 014c 4430A083 		movhi	r3, #68
 537 0150 0200A0E1 		mov	r0, r2
 538 0154 030000EA 		b	.L33
 539              	.L125:
 197:apps/rssi/main.c **** 		sprintf(text, "%c%cE%c%c", (power >= 40) ? 'D':'G',
 540              		.loc 2 197 0
 541 0158 4610A0E3 		mov	r1, #70
 542 015c 4430A0E3 		mov	r3, #68
 543 0160 0320A0E1 		mov	r2, r3
 544 0164 0100A0E1 		mov	r0, r1
 545              	.L33:
 197:apps/rssi/main.c **** 		sprintf(text, "%c%cE%c%c", (power >= 40) ? 'D':'G',
 546              		.loc 2 197 0 discriminator 12
 547 0168 00108DE5 		str	r1, [sp]
 548 016c 04008DE5 		str	r0, [sp, #4]
 549 0170 641E9FE5 		ldr	r1, .L203+36
 550 0174 18008DE2 		add	r0, sp, #24
 551 0178 FEFFFFEB 		bl	sprintf
 552              	.LVL36:
 200:apps/rssi/main.c **** 		fb_putstr(text, framebuffer->width);
 553              		.loc 2 200 0 is_stmt 1 discriminator 12
 554 017c 003094E5 		ldr	r3, [r4]
 555 0180 18008DE2 		add	r0, sp, #24
 556 0184 B012D3E1 		ldrh	r1, [r3, #32]
 557 0188 FEFFFFEB 		bl	fb_putstr
 558              	.LVL37:
 559              	.LBB367:
 560              	.LBB368:
  87:include/fb/framebuffer.h **** 	framebuffer->fg_color = color;
 561              		.loc 1 87 0 discriminator 12
 562 018c 003094E5 		ldr	r3, [r4]
 563              	.LBE368:
 564              	.LBE367:
 203:apps/rssi/main.c **** 		fb_boxto(framebuffer->width - 1, 10);
 565              		.loc 2 203 0 discriminator 12
 566 0190 B002D3E1 		ldrh	r0, [r3, #32]
 567              	.LBB371:
 568              	.LBB369:
  87:include/fb/framebuffer.h **** 	framebuffer->fg_color = color;
 569              		.loc 1 87 0 discriminator 12
 570 0194 FF2CA0E3 		mov	r2, #65280
 571              	.LBE369:
 572              	.LBE371:
 203:apps/rssi/main.c **** 		fb_boxto(framebuffer->width - 1, 10);
 573              		.loc 2 203 0 discriminator 12
 574 0198 010040E2 		sub	r0, r0, #1
 575              	.LBB372:
 576              	.LBB370:
  87:include/fb/framebuffer.h **** 	framebuffer->fg_color = color;
 577              		.loc 1 87 0 discriminator 12
 578 019c 282083E5 		str	r2, [r3, #40]
 579              	.LVL38:
 580              	.LBE370:
 581              	.LBE372:
 582              	.LBB373:
 583              	.LBB374:
  82:include/fb/framebuffer.h **** 	framebuffer->cursor_y = y;
 584              		.loc 1 82 0 discriminator 12
 585 01a0 0A10A0E3 		mov	r1, #10
  81:include/fb/framebuffer.h **** 	framebuffer->cursor_x = x;
 586              		.loc 1 81 0 discriminator 12
 587 01a4 0020A0E3 		mov	r2, #0
 588              	.LBE374:
 589              	.LBE373:
 203:apps/rssi/main.c **** 		fb_boxto(framebuffer->width - 1, 10);
 590              		.loc 2 203 0 discriminator 12
 591 01a8 0008A0E1 		mov	r0, r0, asl #16
 592              	.LBB376:
 593              	.LBB375:
  81:include/fb/framebuffer.h **** 	framebuffer->cursor_x = x;
 594              		.loc 1 81 0 discriminator 12
 595 01ac B422C3E1 		strh	r2, [r3, #36]	@ movhi
  82:include/fb/framebuffer.h **** 	framebuffer->cursor_y = y;
 596              		.loc 1 82 0 discriminator 12
 597 01b0 B612C3E1 		strh	r1, [r3, #38]	@ movhi
 598              	.LBE375:
 599              	.LBE376:
 203:apps/rssi/main.c **** 		fb_boxto(framebuffer->width - 1, 10);
 600              		.loc 2 203 0 discriminator 12
 601 01b4 2008A0E1 		mov	r0, r0, lsr #16
 602 01b8 FEFFFFEB 		bl	fb_boxto
 603              	.LVL39:
 604              	.L26:
 605              	.LBB377:
 606              	.LBB378:
  87:include/fb/framebuffer.h **** 	framebuffer->fg_color = color;
 607              		.loc 1 87 0
 608 01bc 003094E5 		ldr	r3, [r4]
 609              	.LBE378:
 610              	.LBE377:
 611              	.LBB381:
 612              	.LBB382:
 613              		.loc 1 97 0
 614 01c0 0210A0E3 		mov	r1, #2
 615 01c4 3010C3E5 		strb	r1, [r3, #48]
 616              	.LBE382:
 617              	.LBE381:
 209:apps/rssi/main.c **** 	if (mode == MODE_RACH) {
 618              		.loc 2 209 0
 619 01c8 0410D5E5 		ldrb	r1, [r5, #4]	@ zero_extendqisi2
 620              	.LBB383:
 621              	.LBB379:
  87:include/fb/framebuffer.h **** 	framebuffer->fg_color = color;
 622              		.loc 1 87 0
 623 01cc 0020A0E3 		mov	r2, #0
 624              	.LBE379:
 625              	.LBE383:
 209:apps/rssi/main.c **** 	if (mode == MODE_RACH) {
 626              		.loc 2 209 0
 627 01d0 040051E3 		cmp	r1, #4
 628              	.LBB384:
 629              	.LBB380:
  87:include/fb/framebuffer.h **** 	framebuffer->fg_color = color;
 630              		.loc 1 87 0
 631 01d4 282083E5 		str	r2, [r3, #40]
 632              	.LVL40:
 633              	.LBE380:
 634              	.LBE384:
 209:apps/rssi/main.c **** 	if (mode == MODE_RACH) {
 635              		.loc 2 209 0
 636 01d8 4400001A 		bne	.L35
 637              	.LBB385:
 638              	.LBB386:
 639              	.LBB387:
  81:include/fb/framebuffer.h **** 	framebuffer->cursor_x = x;
 640              		.loc 1 81 0
 641 01dc B422C3E1 		strh	r2, [r3, #36]	@ movhi
  82:include/fb/framebuffer.h **** 	framebuffer->cursor_y = y;
 642              		.loc 1 82 0
 643 01e0 1C20A0E3 		mov	r2, #28
 644              	.LBE387:
 645              	.LBE386:
 210:apps/rssi/main.c **** 		unsigned long elapsed = jiffies - rach_when;
 646              		.loc 2 210 0
 647 01e4 F41D9FE5 		ldr	r1, .L203+40
 648              	.LBB389:
 649              	.LBB388:
  82:include/fb/framebuffer.h **** 	framebuffer->cursor_y = y;
 650              		.loc 1 82 0
 651 01e8 B622C3E1 		strh	r2, [r3, #38]	@ movhi
 652              	.LBE388:
 653              	.LBE389:
 213:apps/rssi/main.c **** 		switch (assign) {
 654              		.loc 2 213 0
 655 01ec F02D9FE5 		ldr	r2, .L203+44
 210:apps/rssi/main.c **** 		unsigned long elapsed = jiffies - rach_when;
 656              		.loc 2 210 0
 657 01f0 008091E5 		ldr	r8, [r1]
 213:apps/rssi/main.c **** 		switch (assign) {
 658              		.loc 2 213 0
 659 01f4 0030D2E5 		ldrb	r3, [r2]	@ zero_extendqisi2
 210:apps/rssi/main.c **** 		unsigned long elapsed = jiffies - rach_when;
 660              		.loc 2 210 0
 661 01f8 E81D9FE5 		ldr	r1, .L203+48
 662 01fc 0290A0E1 		mov	r9, r2
 663 0200 007091E5 		ldr	r7, [r1]
 664              	.LVL41:
 213:apps/rssi/main.c **** 		switch (assign) {
 665              		.loc 2 213 0
 666 0204 040053E3 		cmp	r3, #4
 667 0208 03F19F97 		ldrls	pc, [pc, r3, asl #2]
 668 020c 220000EA 		b	.L36
 669              	.L38:
 670 0210 24020000 		.word	.L37
 671 0214 88020000 		.word	.L39
 672 0218 2C020000 		.word	.L40
 673 021c 80020000 		.word	.L41
 674 0220 90020000 		.word	.L42
 675              	.L37:
 215:apps/rssi/main.c **** 			fb_putstr("Rach sent...", -1);
 676              		.loc 2 215 0
 677 0224 C00D9FE5 		ldr	r0, .L203+52
 678 0228 190000EA 		b	.L192
 679              	.L40:
 218:apps/rssi/main.c **** 			sprintf(text, "TA = %d", ta);
 680              		.loc 2 218 0
 681 022c BC6D9FE5 		ldr	r6, .L203+56
 682              	.LVL42:
 683 0230 BC1D9FE5 		ldr	r1, .L203+60
 684 0234 0020D6E5 		ldrb	r2, [r6]	@ zero_extendqisi2
 685 0238 18008DE2 		add	r0, sp, #24
 686 023c FEFFFFEB 		bl	sprintf
 687              	.LVL43:
 219:apps/rssi/main.c **** 			fb_putstr(text, -1);
 688              		.loc 2 219 0
 689 0240 0010E0E3 		mvn	r1, #0
 690 0244 18008DE2 		add	r0, sp, #24
 691 0248 FEFFFFEB 		bl	fb_putstr
 692              	.LVL44:
 693              	.LBB390:
 694              	.LBB391:
  81:include/fb/framebuffer.h **** 	framebuffer->cursor_x = x;
 695              		.loc 1 81 0
 696 024c 003094E5 		ldr	r3, [r4]
 697 0250 0020A0E3 		mov	r2, #0
 698 0254 B422C3E1 		strh	r2, [r3, #36]	@ movhi
  82:include/fb/framebuffer.h **** 	framebuffer->cursor_y = y;
 699              		.loc 1 82 0
 700 0258 2420A0E3 		mov	r2, #36
 701 025c B622C3E1 		strh	r2, [r3, #38]	@ movhi
 702              	.LBE391:
 703              	.LBE390:
 221:apps/rssi/main.c **** 			sprintf(text, "(%dm)", ta * 554);
 704              		.loc 2 221 0
 705 0260 0030D6E5 		ldrb	r3, [r6]	@ zero_extendqisi2
 706 0264 8C2D9FE5 		ldr	r2, .L203+64
 707 0268 18008DE2 		add	r0, sp, #24
 708 026c 881D9FE5 		ldr	r1, .L203+68
 709 0270 930202E0 		mul	r2, r3, r2
 710 0274 FEFFFFEB 		bl	sprintf
 711              	.LVL45:
 222:apps/rssi/main.c **** 			fb_putstr(text, -1);
 712              		.loc 2 222 0
 713 0278 18008DE2 		add	r0, sp, #24
 714 027c 040000EA 		b	.L192
 715              	.LVL46:
 716              	.L41:
 225:apps/rssi/main.c **** 			fb_putstr("Rejected!", -1);
 717              		.loc 2 225 0
 718 0280 780D9FE5 		ldr	r0, .L203+72
 719 0284 020000EA 		b	.L192
 720              	.L39:
 228:apps/rssi/main.c **** 			fb_putstr("TX disabled", -1);
 721              		.loc 2 228 0
 722 0288 740D9FE5 		ldr	r0, .L203+76
 723 028c 000000EA 		b	.L192
 724              	.L42:
 231:apps/rssi/main.c **** 			fb_putstr("Timeout", -1);
 725              		.loc 2 231 0
 726 0290 700D9FE5 		ldr	r0, .L203+80
 727              	.LVL47:
 728              	.L192:
 729 0294 0010E0E3 		mvn	r1, #0
 730 0298 FEFFFFEB 		bl	fb_putstr
 731              	.LVL48:
 732              	.L36:
 234:apps/rssi/main.c **** 		switch (assign) {
 733              		.loc 2 234 0
 734 029c 0030D9E5 		ldrb	r3, [r9]	@ zero_extendqisi2
 735 02a0 023043E2 		sub	r3, r3, #2
 736 02a4 010053E3 		cmp	r3, #1
 737 02a8 1000008A 		bhi	.L35
 738              	.LVL49:
 739              	.LBB392:
 740              	.LBB393:
  81:include/fb/framebuffer.h **** 	framebuffer->cursor_x = x;
 741              		.loc 1 81 0
 742 02ac 003094E5 		ldr	r3, [r4]
 743 02b0 0020A0E3 		mov	r2, #0
 744 02b4 B422C3E1 		strh	r2, [r3, #36]	@ movhi
 745              	.LBE393:
 746              	.LBE392:
 210:apps/rssi/main.c **** 		unsigned long elapsed = jiffies - rach_when;
 747              		.loc 2 210 0
 748 02b8 087067E0 		rsb	r7, r7, r8
 749              	.LVL50:
 750              	.LBB396:
 751              	.LBB394:
  82:include/fb/framebuffer.h **** 	framebuffer->cursor_y = y;
 752              		.loc 1 82 0
 753 02bc 2C20A0E3 		mov	r2, #44
 754              	.LBE394:
 755              	.LBE396:
 238:apps/rssi/main.c **** 			sprintf(text, "Delay:%ldms", elapsed * 1000 / HZ);
 756              		.loc 2 238 0
 757 02c0 FA0FA0E3 		mov	r0, #1000
 758              	.LBB397:
 759              	.LBB395:
  82:include/fb/framebuffer.h **** 	framebuffer->cursor_y = y;
 760              		.loc 1 82 0
 761 02c4 B622C3E1 		strh	r2, [r3, #38]	@ movhi
 762              	.LBE395:
 763              	.LBE397:
 238:apps/rssi/main.c **** 			sprintf(text, "Delay:%ldms", elapsed * 1000 / HZ);
 764              		.loc 2 238 0
 765 02c8 6410A0E3 		mov	r1, #100
 766 02cc 970000E0 		mul	r0, r7, r0
 767 02d0 FEFFFFEB 		bl	__aeabi_uidiv
 768              	.LVL51:
 769 02d4 301D9FE5 		ldr	r1, .L203+84
 770 02d8 0020A0E1 		mov	r2, r0
 771 02dc 18008DE2 		add	r0, sp, #24
 772 02e0 FEFFFFEB 		bl	sprintf
 773              	.LVL52:
 239:apps/rssi/main.c **** 			fb_putstr(text, -1);
 774              		.loc 2 239 0
 775 02e4 18008DE2 		add	r0, sp, #24
 776 02e8 0010E0E3 		mvn	r1, #0
 777 02ec FEFFFFEB 		bl	fb_putstr
 778              	.LVL53:
 779              	.L35:
 780              	.LBE385:
 247:apps/rssi/main.c **** 	if (mode == MODE_SYNC && cursor < 0) {
 781              		.loc 2 247 0
 782 02f0 0430D5E5 		ldrb	r3, [r5, #4]	@ zero_extendqisi2
 783 02f4 030053E3 		cmp	r3, #3
 784 02f8 8F00001A 		bne	.L44
 247:apps/rssi/main.c **** 	if (mode == MODE_SYNC && cursor < 0) {
 785              		.loc 2 247 0 is_stmt 0 discriminator 1
 786 02fc C03C9FE5 		ldr	r3, .L203+12
 787 0300 003093E5 		ldr	r3, [r3]
 788 0304 000053E3 		cmp	r3, #0
 789 0308 8B0000AA 		bge	.L44
 790              	.LBB398:
 249:apps/rssi/main.c **** 		int offset = (framebuffer->width - 96) >> 1;
 791              		.loc 2 249 0 is_stmt 1
 792 030c 003094E5 		ldr	r3, [r4]
 793 0310 B062D3E1 		ldrh	r6, [r3, #32]
 250:apps/rssi/main.c **** 		int height = framebuffer->height - 25;
 794              		.loc 2 250 0
 795 0314 B282D3E1 		ldrh	r8, [r3, #34]
 249:apps/rssi/main.c **** 		int offset = (framebuffer->width - 96) >> 1;
 796              		.loc 2 249 0
 797 0318 606046E2 		sub	r6, r6, #96
 798 031c C660A0E1 		mov	r6, r6, asr #1
 799              	.LVL54:
 250:apps/rssi/main.c **** 		int height = framebuffer->height - 25;
 800              		.loc 2 250 0
 801 0320 198048E2 		sub	r8, r8, #25
 802              	.LVL55:
 803              	.LBB399:
 804              	.LBB400:
 805              		.loc 1 97 0
 806 0324 0070A0E3 		mov	r7, #0
 807 0328 036086E2 		add	r6, r6, #3
 808              	.LVL56:
 809              	.LBE400:
 810              	.LBE399:
 267:apps/rssi/main.c **** 			fb_gotoxy(offset + 3 + 12 * i, height + 10);
 811              		.loc 2 267 0
 812 032c 0A9088E2 		add	r9, r8, #10
 813 0330 0668A0E1 		mov	r6, r6, asl #16
 814              	.LVL57:
 815 0334 0998A0E1 		mov	r9, r9, asl #16
 816              	.LBB402:
 817              	.LBB401:
 818              		.loc 1 97 0
 819 0338 3070C3E5 		strb	r7, [r3, #48]
 820              	.LVL58:
 821              	.LBE401:
 822              	.LBE402:
 260:apps/rssi/main.c **** 			l = (max) ? ul_max[tn] : ul_levels[tn];
 823              		.loc 2 260 0
 824 033c CCBC9FE5 		ldr	fp, .L203+88
 825 0340 2668A0E1 		mov	r6, r6, lsr #16
 267:apps/rssi/main.c **** 			fb_gotoxy(offset + 3 + 12 * i, height + 10);
 826              		.loc 2 267 0
 827 0344 2998A0E1 		mov	r9, r9, lsr #16
 828              	.LVL59:
 829              	.L51:
 830              	.LBB403:
 831              	.LBB404:
  92:include/fb/framebuffer.h **** 	framebuffer->bg_color = color;
 832              		.loc 1 92 0
 833 0348 002094E5 		ldr	r2, [r4]
 834 034c FF14E0E3 		mvn	r1, #-16777216
 835              	.LBE404:
 836              	.LBE403:
 254:apps/rssi/main.c **** 			if (uplink)
 837              		.loc 2 254 0
 838 0350 083095E5 		ldr	r3, [r5, #8]
 839              	.LBB406:
 840              	.LBB405:
  92:include/fb/framebuffer.h **** 	framebuffer->bg_color = color;
 841              		.loc 1 92 0
 842 0354 2C1082E5 		str	r1, [r2, #44]
 843              	.LBE405:
 844              	.LBE406:
 259:apps/rssi/main.c **** 			fb_gotoxy(offset + 12 * i, 7);
 845              		.loc 2 259 0
 846 0358 031046E2 		sub	r1, r6, #3
 847              	.LBB407:
 848              	.LBB408:
  81:include/fb/framebuffer.h **** 	framebuffer->cursor_x = x;
 849              		.loc 1 81 0
 850 035c B412C2E1 		strh	r1, [r2, #36]	@ movhi
  82:include/fb/framebuffer.h **** 	framebuffer->cursor_y = y;
 851              		.loc 1 82 0
 852 0360 0710A0E3 		mov	r1, #7
 853              	.LBE408:
 854              	.LBE407:
 254:apps/rssi/main.c **** 			if (uplink)
 855              		.loc 2 254 0
 856 0364 000053E3 		cmp	r3, #0
 857              	.LBB410:
 858              	.LBB409:
  82:include/fb/framebuffer.h **** 	framebuffer->cursor_y = y;
 859              		.loc 1 82 0
 860 0368 B612C2E1 		strh	r1, [r2, #38]	@ movhi
 861              	.LBE409:
 862              	.LBE410:
 260:apps/rssi/main.c **** 			l = (max) ? ul_max[tn] : ul_levels[tn];
 863              		.loc 2 260 0
 864 036c 0C2095E5 		ldr	r2, [r5, #12]
 865 0370 03308712 		addne	r3, r7, #3
 255:apps/rssi/main.c **** 				tn = (i + 3) & 7; /* UL is shifted by 3 */
 866              		.loc 2 255 0
 867 0374 07A00312 		andne	r10, r3, #7
 868              	.LVL60:
 869 0378 07A0A001 		moveq	r10, r7
 870              	.LVL61:
 260:apps/rssi/main.c **** 			l = (max) ? ul_max[tn] : ul_levels[tn];
 871              		.loc 2 260 0
 872 037c 000052E3 		cmp	r2, #0
 873 0380 8C3C9F05 		ldreq	r3, .L203+92
 874 0384 0A10DB17 		ldrneb	r1, [fp, r10]	@ zero_extendqisi2
 875 0388 0A10D307 		ldreqb	r1, [r3, r10]	@ zero_extendqisi2
 876              	.LVL62:
 261:apps/rssi/main.c **** 			l = 110 - l;
 877              		.loc 2 261 0
 878 038c 6E2061E2 		rsb	r2, r1, #110
 879              	.LVL63:
 262:apps/rssi/main.c **** 			if (l >= 100)
 880              		.loc 2 262 0
 881 0390 630052E3 		cmp	r2, #99
 263:apps/rssi/main.c **** 				l -= 100;
 882              		.loc 2 263 0
 883 0394 0A2061C2 		rsbgt	r2, r1, #10
 884              	.LVL64:
 264:apps/rssi/main.c **** 			sprintf(text, "%02d", l);
 885              		.loc 2 264 0
 886 0398 18008DE2 		add	r0, sp, #24
 887 039c 741C9FE5 		ldr	r1, .L203+96
 888 03a0 FEFFFFEB 		bl	sprintf
 889              	.LVL65:
 265:apps/rssi/main.c **** 			fb_putstr(text, framebuffer->width);
 890              		.loc 2 265 0
 891 03a4 002094E5 		ldr	r2, [r4]
 892 03a8 18008DE2 		add	r0, sp, #24
 893 03ac B012D2E1 		ldrh	r1, [r2, #32]
 894 03b0 FEFFFFEB 		bl	fb_putstr
 895              	.LVL66:
 896              	.LBB411:
 897              	.LBB412:
  92:include/fb/framebuffer.h **** 	framebuffer->bg_color = color;
 898              		.loc 1 92 0
 899 03b4 002094E5 		ldr	r2, [r4]
 900              	.LBE412:
 901              	.LBE411:
 268:apps/rssi/main.c **** 			fb_boxto(offset + 3 + 12 * i + 5, height + 10 - ul_levels[tn] * height / 64);
 902              		.loc 2 268 0
 903 03b8 54CC9FE5 		ldr	ip, .L203+92
 904              	.LBB414:
 905              	.LBB413:
  92:include/fb/framebuffer.h **** 	framebuffer->bg_color = color;
 906              		.loc 1 92 0
 907 03bc 0010A0E3 		mov	r1, #0
 908 03c0 2C1082E5 		str	r1, [r2, #44]
 909              	.LVL67:
 910              	.LBE413:
 911              	.LBE414:
 268:apps/rssi/main.c **** 			fb_boxto(offset + 3 + 12 * i + 5, height + 10 - ul_levels[tn] * height / 64);
 912              		.loc 2 268 0
 913 03c4 0A10DCE7 		ldrb	r1, [ip, r10]	@ zero_extendqisi2
 914 03c8 980101E0 		mul	r1, r8, r1
 915 03cc 000051E3 		cmp	r1, #0
 916 03d0 3F0081E2 		add	r0, r1, #63
 917 03d4 0010A0B1 		movlt	r1, r0
 918              	.LBB415:
 919              	.LBB416:
  81:include/fb/framebuffer.h **** 	framebuffer->cursor_x = x;
 920              		.loc 1 81 0
 921 03d8 B462C2E1 		strh	r6, [r2, #36]	@ movhi
  82:include/fb/framebuffer.h **** 	framebuffer->cursor_y = y;
 922              		.loc 1 82 0
 923 03dc B692C2E1 		strh	r9, [r2, #38]	@ movhi
 924              	.LBE416:
 925              	.LBE415:
 268:apps/rssi/main.c **** 			fb_boxto(offset + 3 + 12 * i + 5, height + 10 - ul_levels[tn] * height / 64);
 926              		.loc 2 268 0
 927 03e0 052086E2 		add	r2, r6, #5
 928 03e4 0228A0E1 		mov	r2, r2, asl #16
 929 03e8 411349E0 		sub	r1, r9, r1, asr #6
 930 03ec 2228A0E1 		mov	r2, r2, lsr #16
 931 03f0 0118A0E1 		mov	r1, r1, asl #16
 932 03f4 0200A0E1 		mov	r0, r2
 933 03f8 2118A0E1 		mov	r1, r1, lsr #16
 934 03fc 0C208DE5 		str	r2, [sp, #12]
 935 0400 FEFFFFEB 		bl	fb_boxto
 936              	.LVL68:
 269:apps/rssi/main.c **** 			if (max) {
 937              		.loc 2 269 0
 938 0404 0C1095E5 		ldr	r1, [r5, #12]
 939 0408 000051E3 		cmp	r1, #0
 940 040c 0C209DE5 		ldr	r2, [sp, #12]
 941 0410 0D00000A 		beq	.L49
 270:apps/rssi/main.c **** 				fb_gotoxy(offset + 3 + 12 * i, height + 10 - ul_max[tn] * height / 64);
 942              		.loc 2 270 0
 943 0414 0A30DBE7 		ldrb	r3, [fp, r10]	@ zero_extendqisi2
 944 0418 980303E0 		mul	r3, r8, r3
 945 041c 3F1083E2 		add	r1, r3, #63
 946 0420 000053E3 		cmp	r3, #0
 947 0424 0130A0B1 		movlt	r3, r1
 948 0428 431349E0 		sub	r1, r9, r3, asr #6
 949              	.LBB417:
 950              	.LBB418:
  81:include/fb/framebuffer.h **** 	framebuffer->cursor_x = x;
 951              		.loc 1 81 0
 952 042c 843B9FE5 		ldr	r3, .L203
 953              	.LBE418:
 954              	.LBE417:
 270:apps/rssi/main.c **** 				fb_gotoxy(offset + 3 + 12 * i, height + 10 - ul_max[tn] * height / 64);
 955              		.loc 2 270 0
 956 0430 0118A0E1 		mov	r1, r1, asl #16
 957              	.LBB421:
 958              	.LBB419:
  81:include/fb/framebuffer.h **** 	framebuffer->cursor_x = x;
 959              		.loc 1 81 0
 960 0434 003093E5 		ldr	r3, [r3]
 961              	.LBE419:
 962              	.LBE421:
 270:apps/rssi/main.c **** 				fb_gotoxy(offset + 3 + 12 * i, height + 10 - ul_max[tn] * height / 64);
 963              		.loc 2 270 0
 964 0438 2118A0E1 		mov	r1, r1, lsr #16
 965              	.LVL69:
 966              	.LBB422:
 967              	.LBB420:
  81:include/fb/framebuffer.h **** 	framebuffer->cursor_x = x;
 968              		.loc 1 81 0
 969 043c B462C3E1 		strh	r6, [r3, #36]	@ movhi
  82:include/fb/framebuffer.h **** 	framebuffer->cursor_y = y;
 970              		.loc 1 82 0
 971 0440 B612C3E1 		strh	r1, [r3, #38]	@ movhi
 972              	.LBE420:
 973              	.LBE422:
 271:apps/rssi/main.c **** 				fb_boxto(offset + 3 + 12 * i + 5, height + 10 - ul_max[tn] * height / 64);
 974              		.loc 2 271 0
 975 0444 0200A0E1 		mov	r0, r2
 976 0448 FEFFFFEB 		bl	fb_boxto
 977              	.LVL70:
 978              	.L49:
 253:apps/rssi/main.c **** 		for (i = 0; i < 8; i++) {
 979              		.loc 2 253 0
 980 044c 017087E2 		add	r7, r7, #1
 981              	.LVL71:
 982 0450 0C6086E2 		add	r6, r6, #12
 983              	.LVL72:
 984 0454 0668A0E1 		mov	r6, r6, asl #16
 985              	.LVL73:
 986 0458 080057E3 		cmp	r7, #8
 987 045c 2668A0E1 		mov	r6, r6, lsr #16
 988 0460 B8FFFF1A 		bne	.L51
 989              	.LVL74:
 990              	.LBB423:
 991              	.LBB424:
  92:include/fb/framebuffer.h **** 	framebuffer->bg_color = color;
 992              		.loc 1 92 0
 993 0464 003094E5 		ldr	r3, [r4]
 994 0468 FE24E0E3 		mvn	r2, #-33554432
 995 046c 2C2083E5 		str	r2, [r3, #44]
 996              	.LBE424:
 997              	.LBE423:
 275:apps/rssi/main.c **** 		if (max) {
 998              		.loc 2 275 0
 999 0470 0C2095E5 		ldr	r2, [r5, #12]
 1000 0474 000052E3 		cmp	r2, #0
 1001 0478 0800000A 		beq	.L52
 1002              	.LVL75:
 277:apps/rssi/main.c **** 			fb_gotoxy(framebuffer->width - 16, 15);
 1003              		.loc 2 277 0
 1004 047c B012D3E1 		ldrh	r1, [r3, #32]
 1005              	.LVL76:
 1006              	.LBB425:
 1007              	.LBB426:
  87:include/fb/framebuffer.h **** 	framebuffer->fg_color = color;
 1008              		.loc 1 87 0
 1009 0480 FF28A0E3 		mov	r2, #16711680
 1010 0484 282083E5 		str	r2, [r3, #40]
 1011              	.LBE426:
 1012              	.LBE425:
 277:apps/rssi/main.c **** 			fb_gotoxy(framebuffer->width - 16, 15);
 1013              		.loc 2 277 0
 1014 0488 102041E2 		sub	r2, r1, #16
 1015              	.LBB427:
 1016              	.LBB428:
  81:include/fb/framebuffer.h **** 	framebuffer->cursor_x = x;
 1017              		.loc 1 81 0
 1018 048c B422C3E1 		strh	r2, [r3, #36]	@ movhi
  82:include/fb/framebuffer.h **** 	framebuffer->cursor_y = y;
 1019              		.loc 1 82 0
 1020 0490 0F20A0E3 		mov	r2, #15
 1021 0494 B622C3E1 		strh	r2, [r3, #38]	@ movhi
 1022              	.LBE428:
 1023              	.LBE427:
 278:apps/rssi/main.c **** 			fb_putstr("max", framebuffer->width);
 1024              		.loc 2 278 0
 1025 0498 7C0B9FE5 		ldr	r0, .L203+100
 1026 049c FEFFFFEB 		bl	fb_putstr
 1027              	.LVL77:
 1028              	.L52:
 1029              	.LBB429:
 1030              	.LBB430:
 1031              		.loc 1 97 0
 1032 04a0 003094E5 		ldr	r3, [r4]
 1033 04a4 0220A0E3 		mov	r2, #2
 1034 04a8 3020C3E5 		strb	r2, [r3, #48]
 1035              	.LVL78:
 1036              	.LBE430:
 1037              	.LBE429:
 1038              	.LBB431:
 1039              	.LBB432:
  87:include/fb/framebuffer.h **** 	framebuffer->fg_color = color;
 1040              		.loc 1 87 0
 1041 04ac FF20A0E3 		mov	r2, #255
 1042 04b0 282083E5 		str	r2, [r3, #40]
 1043              	.LVL79:
 1044              	.LBE432:
 1045              	.LBE431:
 1046              	.LBB433:
 1047              	.LBB434:
  81:include/fb/framebuffer.h **** 	framebuffer->cursor_x = x;
 1048              		.loc 1 81 0
 1049 04b4 0020A0E3 		mov	r2, #0
 1050 04b8 B422C3E1 		strh	r2, [r3, #36]	@ movhi
  82:include/fb/framebuffer.h **** 	framebuffer->cursor_y = y;
 1051              		.loc 1 82 0
 1052 04bc 1020A0E3 		mov	r2, #16
 1053 04c0 B622C3E1 		strh	r2, [r3, #38]	@ movhi
 1054              	.LBE434:
 1055              	.LBE433:
 283:apps/rssi/main.c **** 		if (pcs && ul_arfcn >= PCS_MIN && ul_arfcn <= PCS_MAX)
 1056              		.loc 2 283 0
 1057 04c4 103095E5 		ldr	r3, [r5, #16]
 1058 04c8 000053E3 		cmp	r3, #0
 1059 04cc 0800000A 		beq	.L53
 283:apps/rssi/main.c **** 		if (pcs && ul_arfcn >= PCS_MIN && ul_arfcn <= PCS_MAX)
 1060              		.loc 2 283 0 is_stmt 0 discriminator 1
 1061 04d0 E83A9FE5 		ldr	r3, .L203+8
 1062 04d4 B421D3E1 		ldrh	r2, [r3, #20]
 1063 04d8 403B9FE5 		ldr	r3, .L203+104
 1064 04dc 021C42E2 		sub	r1, r2, #512
 1065 04e0 0118A0E1 		mov	r1, r1, asl #16
 1066 04e4 210853E1 		cmp	r3, r1, lsr #16
 284:apps/rssi/main.c **** 			sprintf(text, "%4dP", ul_arfcn);
 1067              		.loc 2 284 0 is_stmt 1
 1068 04e8 18008D22 		addcs	r0, sp, #24
 1069 04ec 301B9F25 		ldrcs	r1, .L203+108
 1070 04f0 0700002A 		bcs	.L193
 1071              	.L53:
 285:apps/rssi/main.c **** 		else if (ul_arfcn >= DCS_MIN && ul_arfcn <= DCS_MAX)
 1072              		.loc 2 285 0
 1073 04f4 B421D5E1 		ldrh	r2, [r5, #20]
 1074 04f8 283B9FE5 		ldr	r3, .L203+112
 1075 04fc 021C42E2 		sub	r1, r2, #512
 1076 0500 0118A0E1 		mov	r1, r1, asl #16
 1077 0504 210853E1 		cmp	r3, r1, lsr #16
 286:apps/rssi/main.c **** 			sprintf(text, "%4dD", ul_arfcn);
 1078              		.loc 2 286 0
 1079 0508 1C1B9F25 		ldrcs	r1, .L203+116
 288:apps/rssi/main.c **** 			sprintf(text, "%4d ", ul_arfcn);
 1080              		.loc 2 288 0
 1081 050c 1C1B9F35 		ldrcc	r1, .L203+120
 286:apps/rssi/main.c **** 			sprintf(text, "%4dD", ul_arfcn);
 1082              		.loc 2 286 0
 1083 0510 18008DE2 		add	r0, sp, #24
 1084              	.L193:
 288:apps/rssi/main.c **** 			sprintf(text, "%4d ", ul_arfcn);
 1085              		.loc 2 288 0
 1086 0514 FEFFFFEB 		bl	sprintf
 1087              	.LVL80:
 289:apps/rssi/main.c **** 		fb_putstr(text, framebuffer->width);
 1088              		.loc 2 289 0
 1089 0518 003094E5 		ldr	r3, [r4]
 1090 051c 18008DE2 		add	r0, sp, #24
 1091 0520 B012D3E1 		ldrh	r1, [r3, #32]
 1092 0524 FEFFFFEB 		bl	fb_putstr
 1093              	.LVL81:
 1094              	.LBB435:
 1095              	.LBB436:
  92:include/fb/framebuffer.h **** 	framebuffer->bg_color = color;
 1096              		.loc 1 92 0
 1097 0528 003094E5 		ldr	r3, [r4]
 1098 052c FF24E0E3 		mvn	r2, #-16777216
 1099 0530 2C2083E5 		str	r2, [r3, #44]
 1100              	.LVL82:
 1101              	.LBE436:
 1102              	.LBE435:
 1103              	.LBB437:
 1104              	.LBB438:
  87:include/fb/framebuffer.h **** 	framebuffer->fg_color = color;
 1105              		.loc 1 87 0
 1106 0534 0020A0E3 		mov	r2, #0
 1107 0538 282083E5 		str	r2, [r3, #40]
 1108              	.LVL83:
 1109              	.L44:
 1110              	.LBE438:
 1111              	.LBE437:
 1112              	.LBE398:
 295:apps/rssi/main.c **** 	if (mode == MODE_SYNC && cursor == 0) {
 1113              		.loc 2 295 0
 1114 053c 0430D5E5 		ldrb	r3, [r5, #4]	@ zero_extendqisi2
 1115 0540 030053E3 		cmp	r3, #3
 1116 0544 8700001A 		bne	.L56
 295:apps/rssi/main.c **** 	if (mode == MODE_SYNC && cursor == 0) {
 1117              		.loc 2 295 0 is_stmt 0 discriminator 1
 1118 0548 743A9FE5 		ldr	r3, .L203+12
 1119 054c 002093E5 		ldr	r2, [r3]
 1120 0550 000052E3 		cmp	r2, #0
 1121 0554 8300001A 		bne	.L56
 1122              	.LVL84:
 1123              	.LBB439:
 1124              	.LBB440:
  81:include/fb/framebuffer.h **** 	framebuffer->cursor_x = x;
 1125              		.loc 1 81 0 is_stmt 1
 1126 0558 003094E5 		ldr	r3, [r4]
 1127 055c B422C3E1 		strh	r2, [r3, #36]	@ movhi
  82:include/fb/framebuffer.h **** 	framebuffer->cursor_y = y;
 1128              		.loc 1 82 0
 1129 0560 1420A0E3 		mov	r2, #20
 1130 0564 B622C3E1 		strh	r2, [r3, #38]	@ movhi
 1131              	.LBE440:
 1132              	.LBE439:
 297:apps/rssi/main.c **** 		if (sync_msg[0] == 'o')
 1133              		.loc 2 297 0
 1134 0568 C43A9FE5 		ldr	r3, .L203+124
 1135 056c 002093E5 		ldr	r2, [r3]
 1136 0570 0030D2E5 		ldrb	r3, [r2]	@ zero_extendqisi2
 1137 0574 6F0053E3 		cmp	r3, #111
 1138 0578 0B00001A 		bne	.L57
 298:apps/rssi/main.c **** 			sprintf(text, "BSIC%d/%d %4d", bsic >> 3, bsic & 7,
 1139              		.loc 2 298 0
 1140 057c 542A9FE5 		ldr	r2, .L203+32
 1141 0580 B03A9FE5 		ldr	r3, .L203+128
 1142 0584 0020D2E5 		ldrb	r2, [r2]	@ zero_extendqisi2
 1143 0588 0030D3E5 		ldrb	r3, [r3]	@ zero_extendqisi2
 1144 058c 6E2042E2 		sub	r2, r2, #110
 1145 0590 00208DE5 		str	r2, [sp]
 1146 0594 18008DE2 		add	r0, sp, #24
 1147 0598 A321A0E1 		mov	r2, r3, lsr #3
 1148 059c 981A9FE5 		ldr	r1, .L203+132
 1149 05a0 073003E2 		and	r3, r3, #7
 1150 05a4 FEFFFFEB 		bl	sprintf
 1151              	.LVL85:
 1152 05a8 020000EA 		b	.L58
 1153              	.L57:
 301:apps/rssi/main.c **** 			sprintf(text, "Sync %s", sync_msg);
 1154              		.loc 2 301 0
 1155 05ac 18008DE2 		add	r0, sp, #24
 1156 05b0 881A9FE5 		ldr	r1, .L203+136
 1157 05b4 FEFFFFEB 		bl	sprintf
 1158              	.LVL86:
 1159              	.L58:
 302:apps/rssi/main.c **** 		fb_putstr(text, -1);
 1160              		.loc 2 302 0
 1161 05b8 0010E0E3 		mvn	r1, #0
 1162 05bc 18008DE2 		add	r0, sp, #24
 1163 05c0 FEFFFFEB 		bl	fb_putstr
 1164              	.LVL87:
 1165              	.LBB441:
 1166              	.LBB442:
  81:include/fb/framebuffer.h **** 	framebuffer->cursor_x = x;
 1167              		.loc 1 81 0
 1168 05c4 003094E5 		ldr	r3, [r4]
 1169 05c8 0060A0E3 		mov	r6, #0
  82:include/fb/framebuffer.h **** 	framebuffer->cursor_y = y;
 1170              		.loc 1 82 0
 1171 05cc 1C20A0E3 		mov	r2, #28
 1172 05d0 B622C3E1 		strh	r2, [r3, #38]	@ movhi
  81:include/fb/framebuffer.h **** 	framebuffer->cursor_x = x;
 1173              		.loc 1 81 0
 1174 05d4 B462C3E1 		strh	r6, [r3, #36]	@ movhi
 1175              	.LBE442:
 1176              	.LBE441:
 305:apps/rssi/main.c **** 		text[0] = si_1[2] ? '1' : '-';
 1177              		.loc 2 305 0
 1178 05d8 643A9FE5 		ldr	r3, .L203+140
 307:apps/rssi/main.c **** 		text[2] = si_2[2] ? '2' : '-';
 1179              		.loc 2 307 0
 1180 05dc 642A9FE5 		ldr	r2, .L203+144
 305:apps/rssi/main.c **** 		text[0] = si_1[2] ? '1' : '-';
 1181              		.loc 2 305 0
 1182 05e0 0230D3E5 		ldrb	r3, [r3, #2]	@ zero_extendqisi2
 307:apps/rssi/main.c **** 		text[2] = si_2[2] ? '2' : '-';
 1183              		.loc 2 307 0
 1184 05e4 0220D2E5 		ldrb	r2, [r2, #2]	@ zero_extendqisi2
 305:apps/rssi/main.c **** 		text[0] = si_1[2] ? '1' : '-';
 1185              		.loc 2 305 0
 1186 05e8 060053E1 		cmp	r3, r6
 1187 05ec 2D30A003 		moveq	r3, #45
 1188 05f0 3130A013 		movne	r3, #49
 307:apps/rssi/main.c **** 		text[2] = si_2[2] ? '2' : '-';
 1189              		.loc 2 307 0
 1190 05f4 060052E1 		cmp	r2, r6
 1191 05f8 2D20A003 		moveq	r2, #45
 1192 05fc 3220A013 		movne	r2, #50
 1193 0600 1A20CDE5 		strb	r2, [sp, #26]
 309:apps/rssi/main.c **** 		text[4] = si_2bis[2] ? '2' : '-';
 1194              		.loc 2 309 0
 1195 0604 402A9FE5 		ldr	r2, .L203+148
 1196 0608 0220D2E5 		ldrb	r2, [r2, #2]	@ zero_extendqisi2
 1197 060c 060052E1 		cmp	r2, r6
 1198 0610 2D20A003 		moveq	r2, #45
 1199 0614 3220A013 		movne	r2, #50
 305:apps/rssi/main.c **** 		text[0] = si_1[2] ? '1' : '-';
 1200              		.loc 2 305 0
 1201 0618 1830CDE5 		strb	r3, [sp, #24]
 306:apps/rssi/main.c **** 		text[1] = ' ';
 1202              		.loc 2 306 0
 1203 061c 2030A0E3 		mov	r3, #32
 309:apps/rssi/main.c **** 		text[4] = si_2bis[2] ? '2' : '-';
 1204              		.loc 2 309 0
 1205 0620 1C20CDE5 		strb	r2, [sp, #28]
 310:apps/rssi/main.c **** 		text[5] = si_2bis[2] ? 'b' : ' ';
 1206              		.loc 2 310 0
 1207 0624 0320A001 		moveq	r2, r3
 1208 0628 6220A013 		movne	r2, #98
 1209 062c 1D20CDE5 		strb	r2, [sp, #29]
 311:apps/rssi/main.c **** 		text[6] = si_2ter[2] ? '2' : '-';
 1210              		.loc 2 311 0
 1211 0630 182A9FE5 		ldr	r2, .L203+152
 1212 0634 0220D2E5 		ldrb	r2, [r2, #2]	@ zero_extendqisi2
 1213 0638 060052E1 		cmp	r2, r6
 1214 063c 2D20A003 		moveq	r2, #45
 1215 0640 3220A013 		movne	r2, #50
 314:apps/rssi/main.c **** 		text[9] = si_3[2] ? '3' : '-';
 1216              		.loc 2 314 0
 1217 0644 087A9FE5 		ldr	r7, .L203+156
 306:apps/rssi/main.c **** 		text[1] = ' ';
 1218              		.loc 2 306 0
 1219 0648 1930CDE5 		strb	r3, [sp, #25]
 308:apps/rssi/main.c **** 		text[3] = ' ';
 1220              		.loc 2 308 0
 1221 064c 1B30CDE5 		strb	r3, [sp, #27]
 311:apps/rssi/main.c **** 		text[6] = si_2ter[2] ? '2' : '-';
 1222              		.loc 2 311 0
 1223 0650 1E20CDE5 		strb	r2, [sp, #30]
 313:apps/rssi/main.c **** 		text[8] = ' ';
 1224              		.loc 2 313 0
 1225 0654 2030CDE5 		strb	r3, [sp, #32]
 312:apps/rssi/main.c **** 		text[7] = si_2ter[2] ? 't' : ' ';
 1226              		.loc 2 312 0
 1227 0658 0320A001 		moveq	r2, r3
 1228 065c 7420A013 		movne	r2, #116
 315:apps/rssi/main.c **** 		text[10] = ' ';
 1229              		.loc 2 315 0
 1230 0660 2230CDE5 		strb	r3, [sp, #34]
 316:apps/rssi/main.c **** 		text[11] = si_4[2] ? '4' : '-';
 1231              		.loc 2 316 0
 1232 0664 EC399FE5 		ldr	r3, .L203+160
 312:apps/rssi/main.c **** 		text[7] = si_2ter[2] ? 't' : ' ';
 1233              		.loc 2 312 0
 1234 0668 1F20CDE5 		strb	r2, [sp, #31]
 314:apps/rssi/main.c **** 		text[9] = si_3[2] ? '3' : '-';
 1235              		.loc 2 314 0
 1236 066c 0220D7E5 		ldrb	r2, [r7, #2]	@ zero_extendqisi2
 316:apps/rssi/main.c **** 		text[11] = si_4[2] ? '4' : '-';
 1237              		.loc 2 316 0
 1238 0670 0230D3E5 		ldrb	r3, [r3, #2]	@ zero_extendqisi2
 314:apps/rssi/main.c **** 		text[9] = si_3[2] ? '3' : '-';
 1239              		.loc 2 314 0
 1240 0674 060052E1 		cmp	r2, r6
 1241 0678 2D20A003 		moveq	r2, #45
 1242 067c 3320A013 		movne	r2, #51
 316:apps/rssi/main.c **** 		text[11] = si_4[2] ? '4' : '-';
 1243              		.loc 2 316 0
 1244 0680 060053E1 		cmp	r3, r6
 1245 0684 2D30A003 		moveq	r3, #45
 1246 0688 3430A013 		movne	r3, #52
 318:apps/rssi/main.c **** 		fb_putstr(text, -1);
 1247              		.loc 2 318 0
 1248 068c 0010E0E3 		mvn	r1, #0
 1249 0690 18008DE2 		add	r0, sp, #24
 314:apps/rssi/main.c **** 		text[9] = si_3[2] ? '3' : '-';
 1250              		.loc 2 314 0
 1251 0694 2120CDE5 		strb	r2, [sp, #33]
 316:apps/rssi/main.c **** 		text[11] = si_4[2] ? '4' : '-';
 1252              		.loc 2 316 0
 1253 0698 2330CDE5 		strb	r3, [sp, #35]
 317:apps/rssi/main.c **** 		text[12] = '\0';
 1254              		.loc 2 317 0
 1255 069c 2460CDE5 		strb	r6, [sp, #36]
 318:apps/rssi/main.c **** 		fb_putstr(text, -1);
 1256              		.loc 2 318 0
 1257 06a0 FEFFFFEB 		bl	fb_putstr
 1258              	.LVL88:
 1259              	.LBB443:
 1260              	.LBB444:
  81:include/fb/framebuffer.h **** 	framebuffer->cursor_x = x;
 1261              		.loc 1 81 0
 1262 06a4 003094E5 		ldr	r3, [r4]
  82:include/fb/framebuffer.h **** 	framebuffer->cursor_y = y;
 1263              		.loc 1 82 0
 1264 06a8 2420A0E3 		mov	r2, #36
 1265 06ac B622C3E1 		strh	r2, [r3, #38]	@ movhi
  81:include/fb/framebuffer.h **** 	framebuffer->cursor_x = x;
 1266              		.loc 1 81 0
 1267 06b0 B462C3E1 		strh	r6, [r3, #36]	@ movhi
 1268              	.LBE444:
 1269              	.LBE443:
 321:apps/rssi/main.c **** 		fb_putstr("MCC MNC LAC ", -1);
 1270              		.loc 2 321 0
 1271 06b4 A0099FE5 		ldr	r0, .L203+164
 1272 06b8 0010E0E3 		mvn	r1, #0
 1273 06bc FEFFFFEB 		bl	fb_putstr
 1274              	.LVL89:
 1275              	.LBB445:
 1276              	.LBB446:
  81:include/fb/framebuffer.h **** 	framebuffer->cursor_x = x;
 1277              		.loc 1 81 0
 1278 06c0 003094E5 		ldr	r3, [r4]
  82:include/fb/framebuffer.h **** 	framebuffer->cursor_y = y;
 1279              		.loc 1 82 0
 1280 06c4 2C20A0E3 		mov	r2, #44
 1281 06c8 B622C3E1 		strh	r2, [r3, #38]	@ movhi
  81:include/fb/framebuffer.h **** 	framebuffer->cursor_x = x;
 1282              		.loc 1 81 0
 1283 06cc B462C3E1 		strh	r6, [r3, #36]	@ movhi
 1284              	.LBE446:
 1285              	.LBE445:
 323:apps/rssi/main.c **** 		if (mcc) {
 1286              		.loc 2 323 0
 1287 06d0 88399FE5 		ldr	r3, .L203+168
 1288 06d4 B020D3E1 		ldrh	r2, [r3]
 1289 06d8 060052E1 		cmp	r2, r6
 1290 06dc 0D00000A 		beq	.L67
 324:apps/rssi/main.c **** 			if ((mnc & 0x00f) == 0x00f)
 1291              		.loc 2 324 0
 1292 06e0 7C399FE5 		ldr	r3, .L203+172
 1293 06e4 B030D3E1 		ldrh	r3, [r3]
 1294 06e8 0F1003E2 		and	r1, r3, #15
 1295 06ec 0F0051E3 		cmp	r1, #15
 1296 06f0 70199FE5 		ldr	r1, .L203+176
 325:apps/rssi/main.c **** 				sprintf(text, "%3x %02x  %04x", mcc, mnc >> 4, lac);
 1297              		.loc 2 325 0
 1298 06f4 B010D1E1 		ldrh	r1, [r1]
 1299 06f8 18008DE2 		add	r0, sp, #24
 1300 06fc 00108DE5 		str	r1, [sp]
 1301 0700 2332A001 		moveq	r3, r3, lsr #4
 1302 0704 60199F05 		ldreq	r1, .L203+180
 327:apps/rssi/main.c **** 				sprintf(text, "%3x %03x %04x", mcc, mnc, lac);
 1303              		.loc 2 327 0
 1304 0708 60199F15 		ldrne	r1, .L203+184
 1305 070c FEFFFFEB 		bl	sprintf
 1306              	.LVL90:
 328:apps/rssi/main.c **** 			fb_putstr(text, -1);
 1307              		.loc 2 328 0
 1308 0710 18008DE2 		add	r0, sp, #24
 1309 0714 000000EA 		b	.L195
 1310              	.L67:
 330:apps/rssi/main.c **** 			fb_putstr("--- --- ----", -1);
 1311              		.loc 2 330 0
 1312 0718 54099FE5 		ldr	r0, .L203+188
 1313              	.L195:
 1314 071c 0010E0E3 		mvn	r1, #0
 1315 0720 FEFFFFEB 		bl	fb_putstr
 1316              	.LVL91:
 1317              	.LBB447:
 1318              	.LBB448:
  81:include/fb/framebuffer.h **** 	framebuffer->cursor_x = x;
 1319              		.loc 1 81 0
 1320 0724 003094E5 		ldr	r3, [r4]
 1321 0728 0020A0E3 		mov	r2, #0
 1322 072c B422C3E1 		strh	r2, [r3, #36]	@ movhi
  82:include/fb/framebuffer.h **** 	framebuffer->cursor_y = y;
 1323              		.loc 1 82 0
 1324 0730 3420A0E3 		mov	r2, #52
 1325 0734 B622C3E1 		strh	r2, [r3, #38]	@ movhi
 1326              	.LBE448:
 1327              	.LBE447:
 332:apps/rssi/main.c **** 		if (si_3[2]) {
 1328              		.loc 2 332 0
 1329 0738 0230D7E5 		ldrb	r3, [r7, #2]	@ zero_extendqisi2
 1330 073c 000053E3 		cmp	r3, #0
 336:apps/rssi/main.c **** 			fb_putstr("cell id:----", -1);
 1331              		.loc 2 336 0
 1332 0740 30099F05 		ldreq	r0, .L203+192
 332:apps/rssi/main.c **** 		if (si_3[2]) {
 1333              		.loc 2 332 0
 1334 0744 0500000A 		beq	.L196
 333:apps/rssi/main.c **** 			sprintf(text, "cell id:%04x", cell_id);
 1335              		.loc 2 333 0
 1336 0748 2C399FE5 		ldr	r3, .L203+196
 1337 074c 18008DE2 		add	r0, sp, #24
 1338 0750 28199FE5 		ldr	r1, .L203+200
 1339 0754 B020D3E1 		ldrh	r2, [r3]
 1340 0758 FEFFFFEB 		bl	sprintf
 1341              	.LVL92:
 334:apps/rssi/main.c **** 			fb_putstr(text, -1);
 1342              		.loc 2 334 0
 1343 075c 18008DE2 		add	r0, sp, #24
 1344              	.L196:
 336:apps/rssi/main.c **** 			fb_putstr("cell id:----", -1);
 1345              		.loc 2 336 0
 1346 0760 0010E0E3 		mvn	r1, #0
 1347 0764 FEFFFFEB 		bl	fb_putstr
 1348              	.LVL93:
 1349              	.L56:
 340:apps/rssi/main.c **** 	if (mode == MODE_SYNC && cursor > 0) {
 1350              		.loc 2 340 0
 1351 0768 0430D5E5 		ldrb	r3, [r5, #4]	@ zero_extendqisi2
 1352 076c 030053E3 		cmp	r3, #3
 1353 0770 5100001A 		bne	.L72
 340:apps/rssi/main.c **** 	if (mode == MODE_SYNC && cursor > 0) {
 1354              		.loc 2 340 0 is_stmt 0 discriminator 1
 1355 0774 48889FE5 		ldr	r8, .L203+12
 1356 0778 003098E5 		ldr	r3, [r8]
 1357 077c 000053E3 		cmp	r3, #0
 1358 0780 4D0000DA 		ble	.L72
 1359              	.LBB449:
 341:apps/rssi/main.c **** 		int i, y = 0;
 1360              		.loc 2 341 0 is_stmt 1
 1361 0784 0060A0E3 		mov	r6, #0
 343:apps/rssi/main.c **** 		text[0] = '\0';
 1362              		.loc 2 343 0
 1363 0788 28708DE2 		add	r7, sp, #40
 1364 078c 106067E5 		strb	r6, [r7, #-16]!
 1365              	.LVL94:
 341:apps/rssi/main.c **** 		int i, y = 0;
 1366              		.loc 2 341 0
 1367 0790 14608DE5 		str	r6, [sp, #20]
 345:apps/rssi/main.c **** 			if (freq[i].mask & FREQ_TYPE_SERV) {
 1368              		.loc 2 345 0
 1369 0794 E8A89FE5 		ldr	r10, .L203+204
 349:apps/rssi/main.c **** 					sprintf(text + 7, " %4d", i);
 1370              		.loc 2 349 0
 1371 0798 07B087E2 		add	fp, r7, #7
 1372              	.LVL95:
 1373              	.L76:
 345:apps/rssi/main.c **** 			if (freq[i].mask & FREQ_TYPE_SERV) {
 1374              		.loc 2 345 0
 1375 079c 0A30D6E7 		ldrb	r3, [r6, r10]	@ zero_extendqisi2
 1376 07a0 010013E3 		tst	r3, #1
 1377 07a4 D8989FE5 		ldr	r9, .L203+204
 1378 07a8 1200000A 		beq	.L73
 346:apps/rssi/main.c **** 				if (!text[0])
 1379              		.loc 2 346 0
 1380 07ac 1830DDE5 		ldrb	r3, [sp, #24]	@ zero_extendqisi2
 1381 07b0 000053E3 		cmp	r3, #0
 1382 07b4 0400001A 		bne	.L74
 347:apps/rssi/main.c **** 					sprintf(text, "S: %4d", i);
 1383              		.loc 2 347 0
 1384 07b8 0700A0E1 		mov	r0, r7
 1385 07bc C4189FE5 		ldr	r1, .L203+208
 1386 07c0 0620A0E1 		mov	r2, r6
 1387 07c4 FEFFFFEB 		bl	sprintf
 1388              	.LVL96:
 1389 07c8 0A0000EA 		b	.L73
 1390              	.L74:
 349:apps/rssi/main.c **** 					sprintf(text + 7, " %4d", i);
 1391              		.loc 2 349 0
 1392 07cc B8189FE5 		ldr	r1, .L203+212
 1393 07d0 0620A0E1 		mov	r2, r6
 1394 07d4 0B00A0E1 		mov	r0, fp
 1395 07d8 FEFFFFEB 		bl	sprintf
 1396              	.LVL97:
 350:apps/rssi/main.c **** 					print_display(text, &y, cursor - 1);
 1397              		.loc 2 350 0
 1398 07dc 002098E5 		ldr	r2, [r8]
 1399 07e0 0700A0E1 		mov	r0, r7
 1400 07e4 14108DE2 		add	r1, sp, #20
 1401 07e8 012042E2 		sub	r2, r2, #1
 1402 07ec FEFFFFEB 		bl	print_display
 1403              	.LVL98:
 351:apps/rssi/main.c **** 					text[0] = '\0';
 1404              		.loc 2 351 0
 1405 07f0 0030A0E3 		mov	r3, #0
 1406 07f4 1830CDE5 		strb	r3, [sp, #24]
 1407              	.L73:
 344:apps/rssi/main.c **** 		for (i = 0; i < 1024; i++) {
 1408              		.loc 2 344 0
 1409 07f8 016086E2 		add	r6, r6, #1
 1410              	.LVL99:
 1411 07fc 010B56E3 		cmp	r6, #1024
 1412 0800 E5FFFF1A 		bne	.L76
 355:apps/rssi/main.c **** 		if (text[0])
 1413              		.loc 2 355 0
 1414 0804 1830DDE5 		ldrb	r3, [sp, #24]	@ zero_extendqisi2
 1415 0808 000053E3 		cmp	r3, #0
 356:apps/rssi/main.c **** 			print_display(text, &y, cursor - 1);
 1416              		.loc 2 356 0
 1417 080c 00209815 		ldrne	r2, [r8]
 1418 0810 18008D12 		addne	r0, sp, #24
 1419 0814 14108D12 		addne	r1, sp, #20
 1420 0818 01204212 		subne	r2, r2, #1
 1421 081c FEFFFF1B 		blne	print_display
 1422              	.LVL100:
 1423              	.L77:
 357:apps/rssi/main.c **** 		text[0] = '\0';
 1424              		.loc 2 357 0
 1425 0820 28708DE2 		add	r7, sp, #40
 1426 0824 0060A0E3 		mov	r6, #0
 1427              	.LVL101:
 1428 0828 106067E5 		strb	r6, [r7, #-16]!
 1429              	.LVL102:
 363:apps/rssi/main.c **** 					sprintf(text + 7, " %4d", i);
 1430              		.loc 2 363 0
 1431 082c 07A087E2 		add	r10, r7, #7
 1432              	.LVL103:
 1433              	.L81:
 359:apps/rssi/main.c **** 			if (freq[i].mask & FREQ_TYPE_NCELL) {
 1434              		.loc 2 359 0
 1435 0830 0630D9E7 		ldrb	r3, [r9, r6]	@ zero_extendqisi2
 1436 0834 1C0013E3 		tst	r3, #28
 1437 0838 1200000A 		beq	.L78
 360:apps/rssi/main.c **** 				if (!text[0])
 1438              		.loc 2 360 0
 1439 083c 1830DDE5 		ldrb	r3, [sp, #24]	@ zero_extendqisi2
 1440 0840 000053E3 		cmp	r3, #0
 1441 0844 0400001A 		bne	.L79
 361:apps/rssi/main.c **** 					sprintf(text, "N: %4d", i);
 1442              		.loc 2 361 0
 1443 0848 0700A0E1 		mov	r0, r7
 1444 084c 3C189FE5 		ldr	r1, .L203+216
 1445 0850 0620A0E1 		mov	r2, r6
 1446 0854 FEFFFFEB 		bl	sprintf
 1447              	.LVL104:
 1448 0858 0A0000EA 		b	.L78
 1449              	.L79:
 363:apps/rssi/main.c **** 					sprintf(text + 7, " %4d", i);
 1450              		.loc 2 363 0
 1451 085c 28189FE5 		ldr	r1, .L203+212
 1452 0860 0620A0E1 		mov	r2, r6
 1453 0864 0A00A0E1 		mov	r0, r10
 1454 0868 FEFFFFEB 		bl	sprintf
 1455              	.LVL105:
 364:apps/rssi/main.c **** 					print_display(text, &y, cursor - 1);
 1456              		.loc 2 364 0
 1457 086c 002098E5 		ldr	r2, [r8]
 1458 0870 0700A0E1 		mov	r0, r7
 1459 0874 14108DE2 		add	r1, sp, #20
 1460 0878 012042E2 		sub	r2, r2, #1
 1461 087c FEFFFFEB 		bl	print_display
 1462              	.LVL106:
 365:apps/rssi/main.c **** 					text[0] = '\0';
 1463              		.loc 2 365 0
 1464 0880 0030A0E3 		mov	r3, #0
 1465 0884 1830CDE5 		strb	r3, [sp, #24]
 1466              	.L78:
 358:apps/rssi/main.c **** 		for (i = 0; i < 1024; i++) {
 1467              		.loc 2 358 0
 1468 0888 016086E2 		add	r6, r6, #1
 1469              	.LVL107:
 1470 088c 010B56E3 		cmp	r6, #1024
 1471 0890 E6FFFF1A 		bne	.L81
 369:apps/rssi/main.c **** 		if (text[0])
 1472              		.loc 2 369 0
 1473 0894 1830DDE5 		ldrb	r3, [sp, #24]	@ zero_extendqisi2
 1474 0898 000053E3 		cmp	r3, #0
 370:apps/rssi/main.c **** 			print_display(text, &y, cursor - 1);
 1475              		.loc 2 370 0
 1476 089c 00209815 		ldrne	r2, [r8]
 1477 08a0 18008D12 		addne	r0, sp, #24
 1478 08a4 14108D12 		addne	r1, sp, #20
 1479 08a8 01204212 		subne	r2, r2, #1
 1480 08ac FEFFFF1B 		blne	print_display
 1481              	.LVL108:
 1482              	.L82:
 371:apps/rssi/main.c **** 		nb_num = y;
 1483              		.loc 2 371 0
 1484 08b0 14209DE5 		ldr	r2, [sp, #20]
 1485 08b4 D8379FE5 		ldr	r3, .L203+220
 1486 08b8 002083E5 		str	r2, [r3]
 1487              	.LVL109:
 1488              	.L72:
 1489              	.LBE449:
 375:apps/rssi/main.c **** 	if (mode == MODE_MAIN || mode == MODE_ARFCN) {
 1490              		.loc 2 375 0
 1491 08bc 0430D5E5 		ldrb	r3, [r5, #4]	@ zero_extendqisi2
 1492 08c0 FD0013E2 		ands	r0, r3, #253
 1493 08c4 F4269FE5 		ldr	r2, .L203+8
 1494 08c8 2000001A 		bne	.L83
 1495              	.LVL110:
 1496              	.LBB450:
 1497              	.LBB451:
  81:include/fb/framebuffer.h **** 	framebuffer->cursor_x = x;
 1498              		.loc 1 81 0
 1499 08cc 001094E5 		ldr	r1, [r4]
 1500              	.LBE451:
 1501              	.LBE450:
 377:apps/rssi/main.c **** 		if (mode == MODE_ARFCN)
 1502              		.loc 2 377 0
 1503 08d0 020053E3 		cmp	r3, #2
 1504              	.LBB453:
 1505              	.LBB452:
  81:include/fb/framebuffer.h **** 	framebuffer->cursor_x = x;
 1506              		.loc 1 81 0
 1507 08d4 B402C1E1 		strh	r0, [r1, #36]	@ movhi
  82:include/fb/framebuffer.h **** 	framebuffer->cursor_y = y;
 1508              		.loc 1 82 0
 1509 08d8 1400A0E3 		mov	r0, #20
 1510 08dc B602C1E1 		strh	r0, [r1, #38]	@ movhi
 1511              	.LBE452:
 1512              	.LBE453:
 377:apps/rssi/main.c **** 		if (mode == MODE_ARFCN)
 1513              		.loc 2 377 0
 378:apps/rssi/main.c **** 			sprintf(text, "ARFCN %s", input);
 1514              		.loc 2 378 0
 1515 08e0 18008D02 		addeq	r0, sp, #24
 1516 08e4 AC179F05 		ldreq	r1, .L203+224
 1517 08e8 AC279F05 		ldreq	r2, .L203+228
 1518 08ec 1200000A 		beq	.L197
 1519              	.L84:
 379:apps/rssi/main.c **** 		else if (pcs && arfcn >= PCS_MIN && arfcn <= PCS_MAX)
 1520              		.loc 2 379 0
 1521 08f0 103092E5 		ldr	r3, [r2, #16]
 1522 08f4 000053E3 		cmp	r3, #0
 1523 08f8 0700000A 		beq	.L86
 379:apps/rssi/main.c **** 		else if (pcs && arfcn >= PCS_MIN && arfcn <= PCS_MAX)
 1524              		.loc 2 379 0 is_stmt 0 discriminator 1
 1525 08fc B621D2E1 		ldrh	r2, [r2, #22]
 1526 0900 18379FE5 		ldr	r3, .L203+104
 1527 0904 021C42E2 		sub	r1, r2, #512
 1528 0908 0118A0E1 		mov	r1, r1, asl #16
 1529 090c 210853E1 		cmp	r3, r1, lsr #16
 380:apps/rssi/main.c **** 			sprintf(text, "ARFCN %dPCS", arfcn);
 1530              		.loc 2 380 0 is_stmt 1
 1531 0910 18008D22 		addcs	r0, sp, #24
 1532 0914 84179F25 		ldrcs	r1, .L203+232
 1533 0918 0700002A 		bcs	.L197
 1534              	.L86:
 381:apps/rssi/main.c **** 		else if (arfcn >= DCS_MIN && arfcn <= DCS_MAX)
 1535              		.loc 2 381 0
 1536 091c B621D5E1 		ldrh	r2, [r5, #22]
 1537 0920 00379FE5 		ldr	r3, .L203+112
 1538 0924 021C42E2 		sub	r1, r2, #512
 1539 0928 0118A0E1 		mov	r1, r1, asl #16
 1540 092c 210853E1 		cmp	r3, r1, lsr #16
 382:apps/rssi/main.c **** 			sprintf(text, "ARFCN %dDCS", arfcn);
 1541              		.loc 2 382 0
 1542 0930 6C179F25 		ldrcs	r1, .L203+236
 384:apps/rssi/main.c **** 			sprintf(text, "ARFCN %d", arfcn);
 1543              		.loc 2 384 0
 1544 0934 6C179F35 		ldrcc	r1, .L203+240
 382:apps/rssi/main.c **** 			sprintf(text, "ARFCN %dDCS", arfcn);
 1545              		.loc 2 382 0
 1546 0938 18008DE2 		add	r0, sp, #24
 1547              	.L197:
 384:apps/rssi/main.c **** 			sprintf(text, "ARFCN %d", arfcn);
 1548              		.loc 2 384 0
 1549 093c FEFFFFEB 		bl	sprintf
 1550              	.LVL111:
 385:apps/rssi/main.c **** 		fb_putstr(text,framebuffer->width);
 1551              		.loc 2 385 0
 1552 0940 003094E5 		ldr	r3, [r4]
 1553 0944 18008DE2 		add	r0, sp, #24
 1554 0948 B012D3E1 		ldrh	r1, [r3, #32]
 1555 094c FEFFFFEB 		bl	fb_putstr
 1556              	.LVL112:
 1557              	.L83:
 389:apps/rssi/main.c **** 	if (mode == MODE_ARFCN) {
 1558              		.loc 2 389 0
 1559 0950 0430D5E5 		ldrb	r3, [r5, #4]	@ zero_extendqisi2
 1560 0954 020053E3 		cmp	r3, #2
 1561 0958 0B00001A 		bne	.L88
 1562              	.LVL113:
 1563              	.LBB454:
 1564              	.LBB455:
  87:include/fb/framebuffer.h **** 	framebuffer->fg_color = color;
 1565              		.loc 1 87 0
 1566 095c 003094E5 		ldr	r3, [r4]
 1567              	.LBE455:
 1568              	.LBE454:
 1569              	.LBB458:
 1570              	.LBB459:
  92:include/fb/framebuffer.h **** 	framebuffer->bg_color = color;
 1571              		.loc 1 92 0
 1572 0960 FF20A0E3 		mov	r2, #255
 1573              	.LBE459:
 1574              	.LBE458:
 1575              	.LBB461:
 1576              	.LBB456:
  87:include/fb/framebuffer.h **** 	framebuffer->fg_color = color;
 1577              		.loc 1 87 0
 1578 0964 FF64E0E3 		mvn	r6, #-16777216
 1579              	.LBE456:
 1580              	.LBE461:
 1581              	.LBB462:
 1582              	.LBB460:
  92:include/fb/framebuffer.h **** 	framebuffer->bg_color = color;
 1583              		.loc 1 92 0
 1584 0968 2C2083E5 		str	r2, [r3, #44]
 1585              	.LBE460:
 1586              	.LBE462:
 1587              	.LBB463:
 1588              	.LBB457:
  87:include/fb/framebuffer.h **** 	framebuffer->fg_color = color;
 1589              		.loc 1 87 0
 1590 096c 286083E5 		str	r6, [r3, #40]
 1591              	.LVL114:
 1592              	.LBE457:
 1593              	.LBE463:
 392:apps/rssi/main.c **** 		fb_putstr(" ", framebuffer->width);
 1594              		.loc 2 392 0
 1595 0970 B012D3E1 		ldrh	r1, [r3, #32]
 1596 0974 30079FE5 		ldr	r0, .L203+244
 1597 0978 FEFFFFEB 		bl	fb_putstr
 1598              	.LVL115:
 1599              	.LBB464:
 1600              	.LBB465:
  87:include/fb/framebuffer.h **** 	framebuffer->fg_color = color;
 1601              		.loc 1 87 0
 1602 097c 003094E5 		ldr	r3, [r4]
 1603 0980 0020A0E3 		mov	r2, #0
 1604 0984 282083E5 		str	r2, [r3, #40]
 1605              	.LVL116:
 1606              	.LBE465:
 1607              	.LBE464:
 1608              	.LBB466:
 1609              	.LBB467:
  92:include/fb/framebuffer.h **** 	framebuffer->bg_color = color;
 1610              		.loc 1 92 0
 1611 0988 2C6083E5 		str	r6, [r3, #44]
 1612              	.LVL117:
 1613              	.L88:
 1614              	.LBE467:
 1615              	.LBE466:
 398:apps/rssi/main.c **** 	if (mode == MODE_MAIN) {
 1616              		.loc 2 398 0
 1617 098c 0420D5E5 		ldrb	r2, [r5, #4]	@ zero_extendqisi2
 1618 0990 000052E3 		cmp	r2, #0
 1619 0994 24369FE5 		ldr	r3, .L203+8
 1620 0998 7400001A 		bne	.L89
 1621              	.LBB468:
 401:apps/rssi/main.c **** 		if (pcs && arfcn >= PCS_MIN && arfcn <= PCS_MAX) {
 1622              		.loc 2 401 0
 1623 099c 102093E5 		ldr	r2, [r3, #16]
 1624 09a0 000052E3 		cmp	r2, #0
 1625 09a4 04279FE5 		ldr	r2, .L203+248
 1626 09a8 0B00000A 		beq	.L90
 401:apps/rssi/main.c **** 		if (pcs && arfcn >= PCS_MIN && arfcn <= PCS_MAX) {
 1627              		.loc 2 401 0 is_stmt 0 discriminator 1
 1628 09ac B601D3E1 		ldrh	r0, [r3, #22]
 1629 09b0 68169FE5 		ldr	r1, .L203+104
 1630 09b4 020C40E2 		sub	r0, r0, #512
 1631 09b8 0008A0E1 		mov	r0, r0, asl #16
 1632 09bc 200851E1 		cmp	r1, r0, lsr #16
 1633 09c0 0500003A 		bcc	.L90
 402:apps/rssi/main.c **** 			if (uplink)
 1634              		.loc 2 402 0 is_stmt 1
 1635 09c4 080093E5 		ldr	r0, [r3, #8]
 403:apps/rssi/main.c **** 				f = PCS_UL;
 1636              		.loc 2 403 0
 1637 09c8 E4169FE5 		ldr	r1, .L203+252
 1638 09cc 000050E3 		cmp	r0, #0
 1639 09d0 E0369FE5 		ldr	r3, .L203+256
 1640 09d4 0130A011 		movne	r3, r1
 1641 09d8 040000EA 		b	.L91
 1642              	.L90:
 406:apps/rssi/main.c **** 		} else if (uplink)
 1643              		.loc 2 406 0
 1644 09dc 083095E5 		ldr	r3, [r5, #8]
 1645 09e0 000053E3 		cmp	r3, #0
 407:apps/rssi/main.c **** 			f = band->freq_ul;
 1646              		.loc 2 407 0
 1647 09e4 003092E5 		ldr	r3, [r2]
 1648 09e8 10309315 		ldrne	r3, [r3, #16]
 1649              	.LVL118:
 409:apps/rssi/main.c **** 			f = band->freq_dl;
 1650              		.loc 2 409 0
 1651 09ec 14309305 		ldreq	r3, [r3, #20]
 1652              	.LVL119:
 1653              	.L91:
 410:apps/rssi/main.c **** 		f += ((arfcn - band->min) & 1023) << 1;
 1654              		.loc 2 410 0
 1655 09f0 002092E5 		ldr	r2, [r2]
 1656 09f4 B671D5E1 		ldrh	r7, [r5, #22]
 1657 09f8 002092E5 		ldr	r2, [r2]
 1658 09fc 077062E0 		rsb	r7, r2, r7
 1659 0a00 077BA0E1 		mov	r7, r7, asl #22
 1660 0a04 A77A83E0 		add	r7, r3, r7, lsr #21
 1661              	.LVL120:
 1662              	.LBB469:
 1663              	.LBB470:
  81:include/fb/framebuffer.h **** 	framebuffer->cursor_x = x;
 1664              		.loc 1 81 0
 1665 0a08 003094E5 		ldr	r3, [r4]
 1666 0a0c 0060A0E3 		mov	r6, #0
  82:include/fb/framebuffer.h **** 	framebuffer->cursor_y = y;
 1667              		.loc 1 82 0
 1668 0a10 1E20A0E3 		mov	r2, #30
  81:include/fb/framebuffer.h **** 	framebuffer->cursor_x = x;
 1669              		.loc 1 81 0
 1670 0a14 B462C3E1 		strh	r6, [r3, #36]	@ movhi
  82:include/fb/framebuffer.h **** 	framebuffer->cursor_y = y;
 1671              		.loc 1 82 0
 1672 0a18 B622C3E1 		strh	r2, [r3, #38]	@ movhi
 1673              	.LBE470:
 1674              	.LBE469:
 413:apps/rssi/main.c **** 		sprintf(text, "Freq. %d.%d", f / 10, f % 10);
 1675              		.loc 2 413 0
 1676 0a1c 0A10A0E3 		mov	r1, #10
 1677 0a20 0700A0E1 		mov	r0, r7
 1678 0a24 FEFFFFEB 		bl	__aeabi_idiv
 1679              	.LVL121:
 1680 0a28 0A10A0E3 		mov	r1, #10
 1681 0a2c 0080A0E1 		mov	r8, r0
 1682 0a30 0700A0E1 		mov	r0, r7
 1683 0a34 FEFFFFEB 		bl	__aeabi_idivmod
 1684              	.LVL122:
 1685 0a38 0820A0E1 		mov	r2, r8
 1686 0a3c 0130A0E1 		mov	r3, r1
 1687 0a40 18008DE2 		add	r0, sp, #24
 1688 0a44 70169FE5 		ldr	r1, .L203+260
 1689 0a48 FEFFFFEB 		bl	sprintf
 1690              	.LVL123:
 414:apps/rssi/main.c **** 		fb_putstr(text,framebuffer->width);
 1691              		.loc 2 414 0
 1692 0a4c 003094E5 		ldr	r3, [r4]
 1693 0a50 18008DE2 		add	r0, sp, #24
 1694 0a54 B012D3E1 		ldrh	r1, [r3, #32]
 1695 0a58 FEFFFFEB 		bl	fb_putstr
 1696              	.LVL124:
 1697              	.LBB471:
 1698              	.LBB472:
  81:include/fb/framebuffer.h **** 	framebuffer->cursor_x = x;
 1699              		.loc 1 81 0
 1700 0a5c 003094E5 		ldr	r3, [r4]
  82:include/fb/framebuffer.h **** 	framebuffer->cursor_y = y;
 1701              		.loc 1 82 0
 1702 0a60 2820A0E3 		mov	r2, #40
 1703 0a64 B622C3E1 		strh	r2, [r3, #38]	@ movhi
  81:include/fb/framebuffer.h **** 	framebuffer->cursor_x = x;
 1704              		.loc 1 81 0
 1705 0a68 B462C3E1 		strh	r6, [r3, #36]	@ movhi
 1706              	.LBE472:
 1707              	.LBE471:
 417:apps/rssi/main.c **** 		sprintf(text, "Power %d", ((max) ? max_power : power) - 110);
 1708              		.loc 2 417 0
 1709 0a6c 0C3095E5 		ldr	r3, [r5, #12]
 1710 0a70 060053E1 		cmp	r3, r6
 1711 0a74 44369F15 		ldrne	r3, .L203+264
 1712 0a78 58659FE5 		ldr	r6, .L203+32
 1713 0a7c 0020D315 		ldrneb	r2, [r3]	@ zero_extendqisi2
 1714 0a80 0020D605 		ldreqb	r2, [r6]	@ zero_extendqisi2
 1715 0a84 38169FE5 		ldr	r1, .L203+268
 1716 0a88 6E2042E2 		sub	r2, r2, #110
 1717 0a8c 18008DE2 		add	r0, sp, #24
 1718 0a90 FEFFFFEB 		bl	sprintf
 1719              	.LVL125:
 418:apps/rssi/main.c **** 		fb_putstr(text, framebuffer->width);
 1720              		.loc 2 418 0
 1721 0a94 003094E5 		ldr	r3, [r4]
 1722 0a98 18008DE2 		add	r0, sp, #24
 1723 0a9c B012D3E1 		ldrh	r1, [r3, #32]
 1724 0aa0 FEFFFFEB 		bl	fb_putstr
 1725              	.LVL126:
 419:apps/rssi/main.c **** 		if (max) {
 1726              		.loc 2 419 0
 1727 0aa4 0C3095E5 		ldr	r3, [r5, #12]
 1728 0aa8 000053E3 		cmp	r3, #0
 418:apps/rssi/main.c **** 		fb_putstr(text, framebuffer->width);
 1729              		.loc 2 418 0
 1730 0aac 04859FE5 		ldr	r8, .L203
 419:apps/rssi/main.c **** 		if (max) {
 1731              		.loc 2 419 0
 1732 0ab0 0F00000A 		beq	.L95
 1733              	.LVL127:
 1734              	.LBB473:
 1735              	.LBB474:
 1736              		.loc 1 97 0
 1737 0ab4 003098E5 		ldr	r3, [r8]
 1738              	.LBE474:
 1739              	.LBE473:
 422:apps/rssi/main.c **** 			fb_gotoxy(framebuffer->width - 16, 39);
 1740              		.loc 2 422 0
 1741 0ab8 B012D3E1 		ldrh	r1, [r3, #32]
 1742              	.LBB477:
 1743              	.LBB478:
  87:include/fb/framebuffer.h **** 	framebuffer->fg_color = color;
 1744              		.loc 1 87 0
 1745 0abc FF28A0E3 		mov	r2, #16711680
 1746 0ac0 282083E5 		str	r2, [r3, #40]
 1747              	.LBE478:
 1748              	.LBE477:
 422:apps/rssi/main.c **** 			fb_gotoxy(framebuffer->width - 16, 39);
 1749              		.loc 2 422 0
 1750 0ac4 102041E2 		sub	r2, r1, #16
 1751              	.LBB479:
 1752              	.LBB480:
  81:include/fb/framebuffer.h **** 	framebuffer->cursor_x = x;
 1753              		.loc 1 81 0
 1754 0ac8 B422C3E1 		strh	r2, [r3, #36]	@ movhi
 1755              	.LBE480:
 1756              	.LBE479:
 1757              	.LBB482:
 1758              	.LBB475:
 1759              		.loc 1 97 0
 1760 0acc 0070A0E3 		mov	r7, #0
 1761              	.LVL128:
 1762              	.LBE475:
 1763              	.LBE482:
 1764              	.LBB483:
 1765              	.LBB481:
  82:include/fb/framebuffer.h **** 	framebuffer->cursor_y = y;
 1766              		.loc 1 82 0
 1767 0ad0 2720A0E3 		mov	r2, #39
 1768 0ad4 B622C3E1 		strh	r2, [r3, #38]	@ movhi
 1769              	.LBE481:
 1770              	.LBE483:
 1771              	.LBB484:
 1772              	.LBB476:
 1773              		.loc 1 97 0
 1774 0ad8 3070C3E5 		strb	r7, [r3, #48]
 1775              	.LVL129:
 1776              	.LBE476:
 1777              	.LBE484:
 423:apps/rssi/main.c **** 			fb_putstr("max", framebuffer->width);
 1778              		.loc 2 423 0
 1779 0adc 38059FE5 		ldr	r0, .L203+100
 1780 0ae0 FEFFFFEB 		bl	fb_putstr
 1781              	.LVL130:
 1782              	.LBB485:
 1783              	.LBB486:
 1784              		.loc 1 97 0
 1785 0ae4 003098E5 		ldr	r3, [r8]
 1786 0ae8 0220A0E3 		mov	r2, #2
 1787 0aec 3020C3E5 		strb	r2, [r3, #48]
 1788              	.LVL131:
 1789              	.LBE486:
 1790              	.LBE485:
 1791              	.LBB487:
 1792              	.LBB488:
  87:include/fb/framebuffer.h **** 	framebuffer->fg_color = color;
 1793              		.loc 1 87 0
 1794 0af0 287083E5 		str	r7, [r3, #40]
 1795              	.LVL132:
 1796              	.L95:
 1797              	.LBE488:
 1798              	.LBE487:
 1799              	.LBB489:
 1800              	.LBB490:
  92:include/fb/framebuffer.h **** 	framebuffer->bg_color = color;
 1801              		.loc 1 92 0
 1802 0af4 003094E5 		ldr	r3, [r4]
 1803 0af8 0020A0E3 		mov	r2, #0
 1804              	.LBE490:
 1805              	.LBE489:
 1806              	.LBB492:
 1807              	.LBB493:
  82:include/fb/framebuffer.h **** 	framebuffer->cursor_y = y;
 1808              		.loc 1 82 0
 1809 0afc 2D70A0E3 		mov	r7, #45
 1810              	.LBE493:
 1811              	.LBE492:
 1812              	.LBB495:
 1813              	.LBB491:
  92:include/fb/framebuffer.h **** 	framebuffer->bg_color = color;
 1814              		.loc 1 92 0
 1815 0b00 2C2083E5 		str	r2, [r3, #44]
 1816              	.LVL133:
 1817              	.LBE491:
 1818              	.LBE495:
 1819              	.LBB496:
 1820              	.LBB494:
  81:include/fb/framebuffer.h **** 	framebuffer->cursor_x = x;
 1821              		.loc 1 81 0
 1822 0b04 B422C3E1 		strh	r2, [r3, #36]	@ movhi
  82:include/fb/framebuffer.h **** 	framebuffer->cursor_y = y;
 1823              		.loc 1 82 0
 1824 0b08 B672C3E1 		strh	r7, [r3, #38]	@ movhi
 1825              	.LBE494:
 1826              	.LBE496:
 429:apps/rssi/main.c **** 		fb_boxto(framebuffer->width * power / 64, 50);
 1827              		.loc 2 429 0
 1828 0b0c 0000D6E5 		ldrb	r0, [r6]	@ zero_extendqisi2
 1829 0b10 B032D3E1 		ldrh	r3, [r3, #32]
 1830 0b14 930000E0 		mul	r0, r3, r0
 1831 0b18 0005A0E1 		mov	r0, r0, asl #10
 1832 0b1c 2008A0E1 		mov	r0, r0, lsr #16
 1833 0b20 3210A0E3 		mov	r1, #50
 1834 0b24 FEFFFFEB 		bl	fb_boxto
 1835              	.LVL134:
 430:apps/rssi/main.c **** 		if (max) {
 1836              		.loc 2 430 0
 1837 0b28 0C3095E5 		ldr	r3, [r5, #12]
 1838 0b2c 000053E3 		cmp	r3, #0
 1839 0b30 0B00000A 		beq	.L96
 431:apps/rssi/main.c **** 			fb_gotoxy(framebuffer->width * max_power / 64 ,45);
 1840              		.loc 2 431 0
 1841 0b34 7C349FE5 		ldr	r3, .L203
 1842 0b38 80159FE5 		ldr	r1, .L203+264
 1843 0b3c 003093E5 		ldr	r3, [r3]
 1844 0b40 0000D1E5 		ldrb	r0, [r1]	@ zero_extendqisi2
 1845 0b44 B022D3E1 		ldrh	r2, [r3, #32]
 1846 0b48 920000E0 		mul	r0, r2, r0
 1847 0b4c 0005A0E1 		mov	r0, r0, asl #10
 1848 0b50 2008A0E1 		mov	r0, r0, lsr #16
 1849              	.LVL135:
 1850              	.LBB497:
 1851              	.LBB498:
  81:include/fb/framebuffer.h **** 	framebuffer->cursor_x = x;
 1852              		.loc 1 81 0
 1853 0b54 B402C3E1 		strh	r0, [r3, #36]	@ movhi
  82:include/fb/framebuffer.h **** 	framebuffer->cursor_y = y;
 1854              		.loc 1 82 0
 1855 0b58 B672C3E1 		strh	r7, [r3, #38]	@ movhi
 1856              	.LBE498:
 1857              	.LBE497:
 432:apps/rssi/main.c **** 			fb_boxto(framebuffer->width * max_power / 64, 50);
 1858              		.loc 2 432 0
 1859 0b5c 3210A0E3 		mov	r1, #50
 1860 0b60 FEFFFFEB 		bl	fb_boxto
 1861              	.LVL136:
 1862              	.L96:
 1863              	.LBB499:
 1864              	.LBB500:
  92:include/fb/framebuffer.h **** 	framebuffer->bg_color = color;
 1865              		.loc 1 92 0
 1866 0b64 003094E5 		ldr	r3, [r4]
 1867 0b68 FF24E0E3 		mvn	r2, #-16777216
 1868 0b6c 2C2083E5 		str	r2, [r3, #44]
 1869              	.LVL137:
 1870              	.L89:
 1871              	.LBE500:
 1872              	.LBE499:
 1873              	.LBE468:
 438:apps/rssi/main.c **** 	if (mode == MODE_SPECTRUM) {
 1874              		.loc 2 438 0
 1875 0b70 0430D5E5 		ldrb	r3, [r5, #4]	@ zero_extendqisi2
 1876 0b74 010053E3 		cmp	r3, #1
 1877 0b78 40249FE5 		ldr	r2, .L203+8
 1878 0b7c A700001A 		bne	.L97
 1879              	.LBB501:
 441:apps/rssi/main.c **** 		int height = framebuffer->height - 25;
 1880              		.loc 2 441 0
 1881 0b80 003094E5 		ldr	r3, [r4]
 1882              	.LBB502:
 1883              	.LBB503:
  81:include/fb/framebuffer.h **** 	framebuffer->cursor_x = x;
 1884              		.loc 1 81 0
 1885 0b84 0010A0E3 		mov	r1, #0
 1886 0b88 B412C3E1 		strh	r1, [r3, #36]	@ movhi
  82:include/fb/framebuffer.h **** 	framebuffer->cursor_y = y;
 1887              		.loc 1 82 0
 1888 0b8c 0810A0E3 		mov	r1, #8
 1889              	.LBE503:
 1890              	.LBE502:
 441:apps/rssi/main.c **** 		int height = framebuffer->height - 25;
 1891              		.loc 2 441 0
 1892 0b90 B272D3E1 		ldrh	r7, [r3, #34]
 1893              	.LBB505:
 1894              	.LBB504:
  82:include/fb/framebuffer.h **** 	framebuffer->cursor_y = y;
 1895              		.loc 1 82 0
 1896 0b94 B612C3E1 		strh	r1, [r3, #38]	@ movhi
 1897              	.LBE504:
 1898              	.LBE505:
 444:apps/rssi/main.c **** 		if (pcs && arfcn >= PCS_MIN && arfcn <= PCS_MAX)
 1899              		.loc 2 444 0
 1900 0b98 103092E5 		ldr	r3, [r2, #16]
 1901 0b9c 000053E3 		cmp	r3, #0
 441:apps/rssi/main.c **** 		int height = framebuffer->height - 25;
 1902              		.loc 2 441 0
 1903 0ba0 197047E2 		sub	r7, r7, #25
 1904              	.LVL138:
 444:apps/rssi/main.c **** 		if (pcs && arfcn >= PCS_MIN && arfcn <= PCS_MAX)
 1905              		.loc 2 444 0
 1906 0ba4 0700000A 		beq	.L98
 444:apps/rssi/main.c **** 		if (pcs && arfcn >= PCS_MIN && arfcn <= PCS_MAX)
 1907              		.loc 2 444 0 is_stmt 0 discriminator 1
 1908 0ba8 B621D2E1 		ldrh	r2, [r2, #22]
 1909 0bac 6C349FE5 		ldr	r3, .L203+104
 1910 0bb0 021C42E2 		sub	r1, r2, #512
 1911 0bb4 0118A0E1 		mov	r1, r1, asl #16
 1912 0bb8 210853E1 		cmp	r3, r1, lsr #16
 445:apps/rssi/main.c **** 			sprintf(text, "%4dP", arfcn);
 1913              		.loc 2 445 0 is_stmt 1
 1914 0bbc 18008D22 		addcs	r0, sp, #24
 1915 0bc0 5C149F25 		ldrcs	r1, .L203+108
 1916 0bc4 0700002A 		bcs	.L199
 1917              	.L98:
 446:apps/rssi/main.c **** 		else if (arfcn >= DCS_MIN && arfcn <= DCS_MAX)
 1918              		.loc 2 446 0
 1919 0bc8 B621D5E1 		ldrh	r2, [r5, #22]
 1920 0bcc 54349FE5 		ldr	r3, .L203+112
 1921 0bd0 021C42E2 		sub	r1, r2, #512
 1922 0bd4 0118A0E1 		mov	r1, r1, asl #16
 1923 0bd8 210853E1 		cmp	r3, r1, lsr #16
 447:apps/rssi/main.c **** 			sprintf(text, "%4dD", arfcn);
 1924              		.loc 2 447 0
 1925 0bdc 48149F25 		ldrcs	r1, .L203+116
 449:apps/rssi/main.c **** 			sprintf(text, "%4d ", arfcn);
 1926              		.loc 2 449 0
 1927 0be0 48149F35 		ldrcc	r1, .L203+120
 447:apps/rssi/main.c **** 			sprintf(text, "%4dD", arfcn);
 1928              		.loc 2 447 0
 1929 0be4 18008DE2 		add	r0, sp, #24
 1930              	.L199:
 449:apps/rssi/main.c **** 			sprintf(text, "%4d ", arfcn);
 1931              		.loc 2 449 0
 1932 0be8 FEFFFFEB 		bl	sprintf
 1933              	.LVL139:
 450:apps/rssi/main.c **** 		sprintf(text + 5, "   %4d", pm_spectrum[arfcn & 1023] - 110);
 1934              		.loc 2 450 0
 1935 0bec B631D5E1 		ldrh	r3, [r5, #22]
 1936 0bf0 D0649FE5 		ldr	r6, .L203+272
 1937 0bf4 033BA0E1 		mov	r3, r3, asl #22
 1938 0bf8 232BD6E7 		ldrb	r2, [r6, r3, lsr #22]	@ zero_extendqisi2
 1939 0bfc C8149FE5 		ldr	r1, .L203+276
 1940 0c00 6E2042E2 		sub	r2, r2, #110
 1941 0c04 1D008DE2 		add	r0, sp, #29
 1942 0c08 FEFFFFEB 		bl	sprintf
 1943              	.LVL140:
 451:apps/rssi/main.c **** 		fb_putstr(text, -1);
 1944              		.loc 2 451 0
 1945 0c0c 18008DE2 		add	r0, sp, #24
 1946 0c10 0010E0E3 		mvn	r1, #0
 1947 0c14 FEFFFFEB 		bl	fb_putstr
 1948              	.LVL141:
 1949              	.LBB506:
 1950              	.LBB507:
  87:include/fb/framebuffer.h **** 	framebuffer->fg_color = color;
 1951              		.loc 1 87 0
 1952 0c18 003094E5 		ldr	r3, [r4]
 1953 0c1c FF28A0E3 		mov	r2, #16711680
 1954 0c20 282083E5 		str	r2, [r3, #40]
 1955              	.LBE507:
 1956              	.LBE506:
 453:apps/rssi/main.c **** 		if (max) {
 1957              		.loc 2 453 0
 1958 0c24 0C2095E5 		ldr	r2, [r5, #12]
 1959 0c28 000052E3 		cmp	r2, #0
 1960 0c2c 0C00000A 		beq	.L101
 1961              	.LVL142:
 455:apps/rssi/main.c **** 			fb_gotoxy(framebuffer->width - 16,15);
 1962              		.loc 2 455 0
 1963 0c30 B012D3E1 		ldrh	r1, [r3, #32]
 1964              	.LVL143:
 1965              	.LBB508:
 1966              	.LBB509:
 1967              		.loc 1 97 0
 1968 0c34 0020A0E3 		mov	r2, #0
 1969 0c38 3020C3E5 		strb	r2, [r3, #48]
 1970              	.LBE509:
 1971              	.LBE508:
 455:apps/rssi/main.c **** 			fb_gotoxy(framebuffer->width - 16,15);
 1972              		.loc 2 455 0
 1973 0c3c 102041E2 		sub	r2, r1, #16
 1974              	.LBB510:
 1975              	.LBB511:
  81:include/fb/framebuffer.h **** 	framebuffer->cursor_x = x;
 1976              		.loc 1 81 0
 1977 0c40 B422C3E1 		strh	r2, [r3, #36]	@ movhi
  82:include/fb/framebuffer.h **** 	framebuffer->cursor_y = y;
 1978              		.loc 1 82 0
 1979 0c44 0F20A0E3 		mov	r2, #15
 1980 0c48 B622C3E1 		strh	r2, [r3, #38]	@ movhi
 1981              	.LBE511:
 1982              	.LBE510:
 456:apps/rssi/main.c **** 			fb_putstr("max", framebuffer->width);
 1983              		.loc 2 456 0
 1984 0c4c C8039FE5 		ldr	r0, .L203+100
 1985 0c50 FEFFFFEB 		bl	fb_putstr
 1986              	.LVL144:
 1987              	.LBB512:
 1988              	.LBB513:
 1989              		.loc 1 97 0
 1990 0c54 5C339FE5 		ldr	r3, .L203
 1991 0c58 003093E5 		ldr	r3, [r3]
 1992 0c5c 0220A0E3 		mov	r2, #2
 1993 0c60 3020C3E5 		strb	r2, [r3, #48]
 1994              	.LVL145:
 1995              	.L101:
 1996              	.LBE513:
 1997              	.LBE512:
 459:apps/rssi/main.c **** 		if (pm_scale != 1) {
 1998              		.loc 2 459 0
 1999 0c64 C8939FE5 		ldr	r9, .L203+124
 2000 0c68 042099E5 		ldr	r2, [r9, #4]
 2001 0c6c 010052E3 		cmp	r2, #1
 2002 0c70 1000000A 		beq	.L102
 2003              	.LVL146:
 2004              	.LBB514:
 2005              	.LBB515:
 2006              		.loc 1 97 0
 2007 0c74 003094E5 		ldr	r3, [r4]
 2008 0c78 0010A0E3 		mov	r1, #0
 2009 0c7c 3010C3E5 		strb	r1, [r3, #48]
 2010              	.LVL147:
 2011              	.LBE515:
 2012              	.LBE514:
 2013              	.LBB516:
 2014              	.LBB517:
  81:include/fb/framebuffer.h **** 	framebuffer->cursor_x = x;
 2015              		.loc 1 81 0
 2016 0c80 0110A0E3 		mov	r1, #1
 2017 0c84 B412C3E1 		strh	r1, [r3, #36]	@ movhi
  82:include/fb/framebuffer.h **** 	framebuffer->cursor_y = y;
 2018              		.loc 1 82 0
 2019 0c88 0F10A0E3 		mov	r1, #15
 2020 0c8c B612C3E1 		strh	r1, [r3, #38]	@ movhi
 2021              	.LBE517:
 2022              	.LBE516:
 462:apps/rssi/main.c **** 			sprintf(text, "x%d", pm_scale);
 2023              		.loc 2 462 0
 2024 0c90 18008DE2 		add	r0, sp, #24
 2025 0c94 34149FE5 		ldr	r1, .L203+280
 2026 0c98 FEFFFFEB 		bl	sprintf
 2027              	.LVL148:
 463:apps/rssi/main.c **** 			fb_putstr(text, framebuffer->width);
 2028              		.loc 2 463 0
 2029 0c9c 003094E5 		ldr	r3, [r4]
 2030 0ca0 18008DE2 		add	r0, sp, #24
 2031 0ca4 B012D3E1 		ldrh	r1, [r3, #32]
 2032 0ca8 FEFFFFEB 		bl	fb_putstr
 2033              	.LVL149:
 2034              	.LBB518:
 2035              	.LBB519:
 2036              		.loc 1 97 0
 2037 0cac 003094E5 		ldr	r3, [r4]
 2038 0cb0 0220A0E3 		mov	r2, #2
 2039 0cb4 3020C3E5 		strb	r2, [r3, #48]
 2040              	.LVL150:
 2041              	.L102:
 2042              	.LBE519:
 2043              	.LBE518:
 2044              	.LBB520:
 2045              	.LBB521:
  87:include/fb/framebuffer.h **** 	framebuffer->fg_color = color;
 2046              		.loc 1 87 0
 2047 0cb8 003094E5 		ldr	r3, [r4]
 2048 0cbc 0020A0E3 		mov	r2, #0
 2049 0cc0 282083E5 		str	r2, [r3, #40]
 2050              	.LBE521:
 2051              	.LBE520:
 467:apps/rssi/main.c **** 		if (pcs && arfcn >= PCS_MIN && arfcn <= PCS_MAX) {
 2052              		.loc 2 467 0
 2053 0cc4 103095E5 		ldr	r3, [r5, #16]
 2054 0cc8 020053E1 		cmp	r3, r2
 2055 0ccc 0600000A 		beq	.L103
 467:apps/rssi/main.c **** 		if (pcs && arfcn >= PCS_MIN && arfcn <= PCS_MAX) {
 2056              		.loc 2 467 0 is_stmt 0 discriminator 1
 2057 0cd0 E8329FE5 		ldr	r3, .L203+8
 2058 0cd4 B621D3E1 		ldrh	r2, [r3, #22]
 2059 0cd8 40339FE5 		ldr	r3, .L203+104
 2060 0cdc 022C42E2 		sub	r2, r2, #512
 2061 0ce0 0228A0E1 		mov	r2, r2, asl #16
 2062 0ce4 220853E1 		cmp	r3, r2, lsr #16
 2063 0ce8 0400002A 		bcs	.L137
 2064              	.L103:
 471:apps/rssi/main.c **** 			a = band->min;
 2065              		.loc 2 471 0 is_stmt 1
 2066 0cec BC339FE5 		ldr	r3, .L203+248
 2067 0cf0 003093E5 		ldr	r3, [r3]
 2068 0cf4 B080D3E1 		ldrh	r8, [r3]
 2069              	.LVL151:
 472:apps/rssi/main.c **** 			e = band->max;
 2070              		.loc 2 472 0
 2071 0cf8 B4A0D3E1 		ldrh	r10, [r3, #4]
 2072              	.LVL152:
 2073 0cfc 010000EA 		b	.L104
 2074              	.LVL153:
 2075              	.L137:
 469:apps/rssi/main.c **** 			e = PCS_MAX;
 2076              		.loc 2 469 0
 2077 0d00 CCA39FE5 		ldr	r10, .L203+284
 468:apps/rssi/main.c **** 			a = PCS_MIN;
 2078              		.loc 2 468 0
 2079 0d04 028CA0E3 		mov	r8, #512
 2080              	.L104:
 2081              	.LVL154:
 485:apps/rssi/main.c **** 			fb_gotoxy(i, height + 10 - p);
 2082              		.loc 2 485 0
 2083 0d08 0AB087E2 		add	fp, r7, #10
 2084 0d0c 0BB8A0E1 		mov	fp, fp, asl #16
 474:apps/rssi/main.c **** 		for (i = 0; i < framebuffer->width; i++) {
 2085              		.loc 2 474 0
 2086 0d10 0060A0E3 		mov	r6, #0
 485:apps/rssi/main.c **** 			fb_gotoxy(i, height + 10 - p);
 2087              		.loc 2 485 0
 2088 0d14 2BB8A0E1 		mov	fp, fp, lsr #16
 2089              	.LVL155:
 2090              	.L105:
 474:apps/rssi/main.c **** 		for (i = 0; i < framebuffer->width; i++) {
 2091              		.loc 2 474 0 discriminator 1
 2092 0d18 003094E5 		ldr	r3, [r4]
 2093 0d1c B022D3E1 		ldrh	r2, [r3, #32]
 2094 0d20 020056E1 		cmp	r6, r2
 2095 0d24 A220A0E1 		mov	r2, r2, lsr #1
 2096 0d28 290000AA 		bge	.L202
 475:apps/rssi/main.c **** 			p = (arfcn + i - (framebuffer->width >> 1)) & 1023;
 2097              		.loc 2 475 0
 2098 0d2c B611D5E1 		ldrh	r1, [r5, #22]
 2099 0d30 0608A0E1 		mov	r0, r6, asl #16
 2100 0d34 2008A0E1 		mov	r0, r0, lsr #16
 2101              	.LVL156:
 2102 0d38 011062E0 		rsb	r1, r2, r1
 2103 0d3c 011080E0 		add	r1, r0, r1
 2104 0d40 011BA0E1 		mov	r1, r1, asl #22
 476:apps/rssi/main.c **** 			if ((((p - a) & 1023) & 512))
 2105              		.loc 2 476 0
 2106 0d44 2113A0E1 		mov	r1, r1, lsr #6
 2107 0d48 21C8A0E1 		mov	ip, r1, lsr #16
 478:apps/rssi/main.c **** 			if ((((e - p) & 1023) & 512))
 2108              		.loc 2 478 0
 2109 0d4c 0AE06CE0 		rsb	lr, ip, r10
 476:apps/rssi/main.c **** 			if ((((p - a) & 1023) & 512))
 2110              		.loc 2 476 0
 2111 0d50 0CC068E0 		rsb	ip, r8, ip
 2112 0d54 0CC08EE1 		orr	ip, lr, ip
 478:apps/rssi/main.c **** 			if ((((e - p) & 1023) & 512))
 2113              		.loc 2 478 0
 2114 0d58 020C1CE3 		tst	ip, #512
 2115 0d5c 1A00001A 		bne	.L107
 480:apps/rssi/main.c **** 			p = (pm_spectrum[p] * pm_scale * height / 64);
 2116              		.loc 2 480 0
 2117 0d60 60C39FE5 		ldr	ip, .L203+272
 2118 0d64 2118DCE7 		ldrb	r1, [ip, r1, lsr #16]	@ zero_extendqisi2
 2119 0d68 04C099E5 		ldr	ip, [r9, #4]
 2120 0d6c 9C0101E0 		mul	r1, ip, r1
 2121 0d70 970101E0 		mul	r1, r7, r1
 2122 0d74 3FC081E2 		add	ip, r1, #63
 2123 0d78 000051E3 		cmp	r1, #0
 2124 0d7c 0C10A0B1 		movlt	r1, ip
 2125              	.LVL157:
 481:apps/rssi/main.c **** 			if (p > height)
 2126              		.loc 2 481 0
 2127 0d80 0115A0E1 		mov	r1, r1, asl #10
 2128              	.LVL158:
 2129 0d84 2118A0E1 		mov	r1, r1, lsr #16
 2130 0d88 070051E1 		cmp	r1, r7
 2131              	.LVL159:
 482:apps/rssi/main.c **** 				p = height;
 2132              		.loc 2 482 0
 2133 0d8c 0718A0C1 		movgt	r1, r7, asl #16
 2134 0d90 2118A0C1 		movgt	r1, r1, lsr #16
 2135              	.LVL160:
 483:apps/rssi/main.c **** 			if (i == (framebuffer->width >> 1))
 2136              		.loc 2 483 0
 2137 0d94 020056E1 		cmp	r6, r2
 2138              	.LVL161:
 2139              	.LBB522:
 2140              	.LBB523:
  87:include/fb/framebuffer.h **** 	framebuffer->fg_color = color;
 2141              		.loc 1 87 0
 2142 0d98 FF28A003 		moveq	r2, #16711680
 2143 0d9c 28208305 		streq	r2, [r3, #40]
 2144              	.LVL162:
 2145              	.LBE523:
 2146              	.LBE522:
 2147              	.LBB524:
 2148              	.LBB525:
  81:include/fb/framebuffer.h **** 	framebuffer->cursor_x = x;
 2149              		.loc 1 81 0
 2150 0da0 003094E5 		ldr	r3, [r4]
 2151              	.LBE525:
 2152              	.LBE524:
 485:apps/rssi/main.c **** 			fb_gotoxy(i, height + 10 - p);
 2153              		.loc 2 485 0
 2154 0da4 0B1061E0 		rsb	r1, r1, fp
 2155              	.LVL163:
 2156              	.LBB527:
 2157              	.LBB526:
  82:include/fb/framebuffer.h **** 	framebuffer->cursor_y = y;
 2158              		.loc 1 82 0
 2159 0da8 B612C3E1 		strh	r1, [r3, #38]	@ movhi
  81:include/fb/framebuffer.h **** 	framebuffer->cursor_x = x;
 2160              		.loc 1 81 0
 2161 0dac B402C3E1 		strh	r0, [r3, #36]	@ movhi
 2162              	.LBE526:
 2163              	.LBE527:
 486:apps/rssi/main.c **** 			fb_boxto(i, height + 10);
 2164              		.loc 2 486 0
 2165 0db0 0B10A0E1 		mov	r1, fp
 2166 0db4 FEFFFFEB 		bl	fb_boxto
 2167              	.LVL164:
 487:apps/rssi/main.c **** 			if (i == (framebuffer->width >> 1))
 2168              		.loc 2 487 0
 2169 0db8 003094E5 		ldr	r3, [r4]
 2170 0dbc B022D3E1 		ldrh	r2, [r3, #32]
 2171 0dc0 A20056E1 		cmp	r6, r2, lsr #1
 2172              	.LVL165:
 2173              	.LBB528:
 2174              	.LBB529:
  87:include/fb/framebuffer.h **** 	framebuffer->fg_color = color;
 2175              		.loc 1 87 0
 2176 0dc4 0020A003 		moveq	r2, #0
 2177 0dc8 28208305 		streq	r2, [r3, #40]
 2178              	.LVL166:
 2179              	.L107:
 2180              	.LBE529:
 2181              	.LBE528:
 474:apps/rssi/main.c **** 		for (i = 0; i < framebuffer->width; i++) {
 2182              		.loc 2 474 0
 2183 0dcc 016086E2 		add	r6, r6, #1
 2184              	.LVL167:
 2185 0dd0 D0FFFFEA 		b	.L105
 2186              	.L202:
 490:apps/rssi/main.c **** 		i = framebuffer->width >> 1;
 2187              		.loc 2 490 0
 2188 0dd4 0260A0E1 		mov	r6, r2
 2189              	.LVL168:
 2190              	.LBB530:
 2191              	.LBB531:
  81:include/fb/framebuffer.h **** 	framebuffer->cursor_x = x;
 2192              		.loc 1 81 0
 2193 0dd8 B422C3E1 		strh	r2, [r3, #36]	@ movhi
  82:include/fb/framebuffer.h **** 	framebuffer->cursor_y = y;
 2194              		.loc 1 82 0
 2195 0ddc 0020A0E3 		mov	r2, #0
 2196 0de0 B622C3E1 		strh	r2, [r3, #38]	@ movhi
 2197              	.LBE531:
 2198              	.LBE530:
 492:apps/rssi/main.c **** 		fb_boxto(i, 4);
 2199              		.loc 2 492 0
 2200 0de4 0600A0E1 		mov	r0, r6
 2201 0de8 0410A0E3 		mov	r1, #4
 2202 0dec FEFFFFEB 		bl	fb_boxto
 2203              	.LVL169:
 493:apps/rssi/main.c **** 		fb_gotoxy(i, height + 10);
 2204              		.loc 2 493 0
 2205 0df0 0778A0E1 		mov	r7, r7, asl #16
 2206              	.LVL170:
 2207              	.LBB532:
 2208              	.LBB533:
  81:include/fb/framebuffer.h **** 	framebuffer->cursor_x = x;
 2209              		.loc 1 81 0
 2210 0df4 BC319FE5 		ldr	r3, .L203
 2211              	.LBE533:
 2212              	.LBE532:
 493:apps/rssi/main.c **** 		fb_gotoxy(i, height + 10);
 2213              		.loc 2 493 0
 2214 0df8 2778A0E1 		mov	r7, r7, lsr #16
 2215              	.LVL171:
 2216              	.LBB536:
 2217              	.LBB534:
  81:include/fb/framebuffer.h **** 	framebuffer->cursor_x = x;
 2218              		.loc 1 81 0
 2219 0dfc 003093E5 		ldr	r3, [r3]
 2220              	.LBE534:
 2221              	.LBE536:
 493:apps/rssi/main.c **** 		fb_gotoxy(i, height + 10);
 2222              		.loc 2 493 0
 2223 0e00 0A2087E2 		add	r2, r7, #10
 494:apps/rssi/main.c **** 		fb_boxto(i, height + 14);
 2224              		.loc 2 494 0
 2225 0e04 0E7087E2 		add	r7, r7, #14
 2226              	.LVL172:
 2227 0e08 0718A0E1 		mov	r1, r7, asl #16
 2228              	.LBB537:
 2229              	.LBB535:
  81:include/fb/framebuffer.h **** 	framebuffer->cursor_x = x;
 2230              		.loc 1 81 0
 2231 0e0c B462C3E1 		strh	r6, [r3, #36]	@ movhi
  82:include/fb/framebuffer.h **** 	framebuffer->cursor_y = y;
 2232              		.loc 1 82 0
 2233 0e10 B622C3E1 		strh	r2, [r3, #38]	@ movhi
 2234              	.LBE535:
 2235              	.LBE537:
 494:apps/rssi/main.c **** 		fb_boxto(i, height + 14);
 2236              		.loc 2 494 0
 2237 0e14 0600A0E1 		mov	r0, r6
 2238 0e18 2118A0E1 		mov	r1, r1, lsr #16
 2239 0e1c FEFFFFEB 		bl	fb_boxto
 2240              	.LVL173:
 2241              	.L97:
 2242              	.LBE501:
 2243              	.LBB538:
 2244              	.LBB539:
  87:include/fb/framebuffer.h **** 	framebuffer->fg_color = color;
 2245              		.loc 1 87 0
 2246 0e20 003094E5 		ldr	r3, [r4]
 2247              	.LBE539:
 2248              	.LBE538:
 499:apps/rssi/main.c **** 	fb_gotoxy(0, framebuffer->height - 10);
 2249              		.loc 2 499 0
 2250 0e24 B212D3E1 		ldrh	r1, [r3, #34]
 500:apps/rssi/main.c **** 	fb_boxto(framebuffer->width-1, framebuffer->height - 10);
 2251              		.loc 2 500 0
 2252 0e28 B002D3E1 		ldrh	r0, [r3, #32]
 499:apps/rssi/main.c **** 	fb_gotoxy(0, framebuffer->height - 10);
 2253              		.loc 2 499 0
 2254 0e2c 0A1041E2 		sub	r1, r1, #10
 2255 0e30 0118A0E1 		mov	r1, r1, asl #16
 500:apps/rssi/main.c **** 	fb_boxto(framebuffer->width-1, framebuffer->height - 10);
 2256              		.loc 2 500 0
 2257 0e34 010040E2 		sub	r0, r0, #1
 2258              	.LBB542:
 2259              	.LBB540:
  87:include/fb/framebuffer.h **** 	framebuffer->fg_color = color;
 2260              		.loc 1 87 0
 2261 0e38 FF2CA0E3 		mov	r2, #65280
 2262              	.LBE540:
 2263              	.LBE542:
 499:apps/rssi/main.c **** 	fb_gotoxy(0, framebuffer->height - 10);
 2264              		.loc 2 499 0
 2265 0e3c 2118A0E1 		mov	r1, r1, lsr #16
 2266              	.LVL174:
 2267              	.LBB543:
 2268              	.LBB544:
  81:include/fb/framebuffer.h **** 	framebuffer->cursor_x = x;
 2269              		.loc 1 81 0
 2270 0e40 0060A0E3 		mov	r6, #0
 2271              	.LBE544:
 2272              	.LBE543:
 500:apps/rssi/main.c **** 	fb_boxto(framebuffer->width-1, framebuffer->height - 10);
 2273              		.loc 2 500 0
 2274 0e44 0008A0E1 		mov	r0, r0, asl #16
 2275              	.LBB546:
 2276              	.LBB541:
  87:include/fb/framebuffer.h **** 	framebuffer->fg_color = color;
 2277              		.loc 1 87 0
 2278 0e48 282083E5 		str	r2, [r3, #40]
 2279              	.LBE541:
 2280              	.LBE546:
 2281              	.LBB547:
 2282              	.LBB545:
  81:include/fb/framebuffer.h **** 	framebuffer->cursor_x = x;
 2283              		.loc 1 81 0
 2284 0e4c B462C3E1 		strh	r6, [r3, #36]	@ movhi
  82:include/fb/framebuffer.h **** 	framebuffer->cursor_y = y;
 2285              		.loc 1 82 0
 2286 0e50 B612C3E1 		strh	r1, [r3, #38]	@ movhi
 2287              	.LBE545:
 2288              	.LBE547:
 500:apps/rssi/main.c **** 	fb_boxto(framebuffer->width-1, framebuffer->height - 10);
 2289              		.loc 2 500 0
 2290 0e54 2008A0E1 		mov	r0, r0, lsr #16
 2291 0e58 FEFFFFEB 		bl	fb_boxto
 2292              	.LVL175:
 501:apps/rssi/main.c **** 	fb_gotoxy(0, framebuffer->height - 1);
 2293              		.loc 2 501 0
 2294 0e5c 003094E5 		ldr	r3, [r4]
 2295 0e60 B222D3E1 		ldrh	r2, [r3, #34]
 2296 0e64 012042E2 		sub	r2, r2, #1
 2297              	.LVL176:
 2298              	.LBB548:
 2299              	.LBB549:
  82:include/fb/framebuffer.h **** 	framebuffer->cursor_y = y;
 2300              		.loc 1 82 0
 2301 0e68 B622C3E1 		strh	r2, [r3, #38]	@ movhi
 2302              	.LVL177:
 2303              	.LBE549:
 2304              	.LBE548:
 2305              	.LBB551:
 2306              	.LBB552:
  87:include/fb/framebuffer.h **** 	framebuffer->fg_color = color;
 2307              		.loc 1 87 0
 2308 0e6c FF28A0E3 		mov	r2, #16711680
 2309              	.LVL178:
 2310              	.LBE552:
 2311              	.LBE551:
 2312              	.LBB554:
 2313              	.LBB550:
  81:include/fb/framebuffer.h **** 	framebuffer->cursor_x = x;
 2314              		.loc 1 81 0
 2315 0e70 B462C3E1 		strh	r6, [r3, #36]	@ movhi
 2316              	.LBE550:
 2317              	.LBE554:
 2318              	.LBB555:
 2319              	.LBB553:
  87:include/fb/framebuffer.h **** 	framebuffer->fg_color = color;
 2320              		.loc 1 87 0
 2321 0e74 282083E5 		str	r2, [r3, #40]
 2322              	.LBE553:
 2323              	.LBE555:
 503:apps/rssi/main.c **** 	if (mode == MODE_ARFCN)
 2324              		.loc 2 503 0
 2325 0e78 0430D5E5 		ldrb	r3, [r5, #4]	@ zero_extendqisi2
 2326              	.LVL179:
 2327 0e7c 020053E3 		cmp	r3, #2
 2328 0e80 0B00001A 		bne	.L113
 504:apps/rssi/main.c **** 		sprintf(text, "%s   %s", (cursor) ? "del " : "back",
 2329              		.loc 2 504 0
 2330 0e84 38319FE5 		ldr	r3, .L203+12
 2331 0e88 003093E5 		ldr	r3, [r3]
 2332 0e8c 44229FE5 		ldr	r2, .L203+288
 2333 0e90 060053E1 		cmp	r3, r6
 2334 0e94 40329FE5 		ldr	r3, .L203+292
 2335 0e98 40C29FE5 		ldr	ip, .L203+296
 2336 0e9c 0320A001 		moveq	r2, r3
 2337 0ea0 3C329FE5 		ldr	r3, .L203+300
 2338 0ea4 18008DE2 		add	r0, sp, #24
 2339 0ea8 38129FE5 		ldr	r1, .L203+304
 2340 0eac 0C30A011 		movne	r3, ip
 2341 0eb0 200000EA 		b	.L200
 2342              	.L113:
 506:apps/rssi/main.c **** 	else if (mode == MODE_SYNC && cursor < 0)
 2343              		.loc 2 506 0
 2344 0eb4 030053E3 		cmp	r3, #3
 2345 0eb8 0900001A 		bne	.L116
 506:apps/rssi/main.c **** 	else if (mode == MODE_SYNC && cursor < 0)
 2346              		.loc 2 506 0 is_stmt 0 discriminator 1
 2347 0ebc 00219FE5 		ldr	r2, .L203+12
 2348 0ec0 002092E5 		ldr	r2, [r2]
 2349 0ec4 000052E3 		cmp	r2, #0
 2350 0ec8 050000AA 		bge	.L116
 507:apps/rssi/main.c **** 		sprintf(text, "%s      %s", "back",
 2351              		.loc 2 507 0 is_stmt 1
 2352 0ecc EC309FE5 		ldr	r3, .L203+8
 2353 0ed0 18008DE2 		add	r0, sp, #24
 2354 0ed4 08E093E5 		ldr	lr, [r3, #8]
 2355 0ed8 0C129FE5 		ldr	r1, .L203+308
 2356 0edc F8219FE5 		ldr	r2, .L203+292
 2357 0ee0 100000EA 		b	.L201
 2358              	.L116:
 509:apps/rssi/main.c **** 	else if (mode == MODE_SYNC || mode == MODE_RACH)
 2359              		.loc 2 509 0
 2360 0ee4 033043E2 		sub	r3, r3, #3
 2361 0ee8 FF3003E2 		and	r3, r3, #255
 2362 0eec 010053E3 		cmp	r3, #1
 2363 0ef0 0400008A 		bhi	.L118
 510:apps/rssi/main.c **** 		sprintf(text, "%s        ", "back");
 2364              		.loc 2 510 0
 2365 0ef4 18008DE2 		add	r0, sp, #24
 2366 0ef8 F0119FE5 		ldr	r1, .L203+312
 2367 0efc D8219FE5 		ldr	r2, .L203+292
 2368 0f00 FEFFFFEB 		bl	sprintf
 2369              	.LVL180:
 2370 0f04 0C0000EA 		b	.L115
 2371              	.LVL181:
 2372              	.L118:
 512:apps/rssi/main.c **** 		sprintf(text, "%s       %s", (pcs) ? "PCS" : "DCS",
 2373              		.loc 2 512 0
 2374 0f08 10C095E5 		ldr	ip, [r5, #16]
 2375 0f0c E0319FE5 		ldr	r3, .L203+316
 2376 0f10 00005CE3 		cmp	ip, #0
 2377 0f14 08E095E5 		ldr	lr, [r5, #8]
 2378 0f18 D8119FE5 		ldr	r1, .L203+320
 2379 0f1c D8219FE5 		ldr	r2, .L203+324
 2380 0f20 18008DE2 		add	r0, sp, #24
 2381 0f24 0320A011 		movne	r2, r3
 2382              	.L201:
 2383 0f28 D0C19FE5 		ldr	ip, .L203+328
 2384 0f2c 00005EE3 		cmp	lr, #0
 2385 0f30 CC319FE5 		ldr	r3, .L203+332
 2386 0f34 0C30A011 		movne	r3, ip
 2387              	.L200:
 2388 0f38 FEFFFFEB 		bl	sprintf
 2389              	.LVL182:
 2390              	.L115:
 514:apps/rssi/main.c **** 	fb_putstr(text, -1);
 2391              		.loc 2 514 0
 2392 0f3c 18008DE2 		add	r0, sp, #24
 2393 0f40 0010E0E3 		mvn	r1, #0
 2394 0f44 FEFFFFEB 		bl	fb_putstr
 2395              	.LVL183:
 2396              	.LBB556:
 2397              	.LBB557:
  87:include/fb/framebuffer.h **** 	framebuffer->fg_color = color;
 2398              		.loc 1 87 0
 2399 0f48 003094E5 		ldr	r3, [r4]
 2400              	.LBE557:
 2401              	.LBE556:
 517:apps/rssi/main.c **** 	fb_gotoxy(0, framebuffer->height - 2);
 2402              		.loc 2 517 0
 2403 0f4c B212D3E1 		ldrh	r1, [r3, #34]
 2404              	.LBB560:
 2405              	.LBB558:
  87:include/fb/framebuffer.h **** 	framebuffer->fg_color = color;
 2406              		.loc 1 87 0
 2407 0f50 0020A0E3 		mov	r2, #0
 2408              	.LBE558:
 2409              	.LBE560:
 517:apps/rssi/main.c **** 	fb_gotoxy(0, framebuffer->height - 2);
 2410              		.loc 2 517 0
 2411 0f54 021041E2 		sub	r1, r1, #2
 2412              	.LBB561:
 2413              	.LBB559:
  87:include/fb/framebuffer.h **** 	framebuffer->fg_color = color;
 2414              		.loc 1 87 0
 2415 0f58 282083E5 		str	r2, [r3, #40]
 2416              	.LVL184:
 2417              	.LBE559:
 2418              	.LBE561:
 2419              	.LBB562:
 2420              	.LBB563:
 2421              		.loc 1 97 0
 2422 0f5c 3020C3E5 		strb	r2, [r3, #48]
 2423              	.LBE563:
 2424              	.LBE562:
 2425              	.LBB564:
 2426              	.LBB565:
  81:include/fb/framebuffer.h **** 	framebuffer->cursor_x = x;
 2427              		.loc 1 81 0
 2428 0f60 B422C3E1 		strh	r2, [r3, #36]	@ movhi
  82:include/fb/framebuffer.h **** 	framebuffer->cursor_y = y;
 2429              		.loc 1 82 0
 2430 0f64 B612C3E1 		strh	r1, [r3, #38]	@ movhi
 2431              	.LBE565:
 2432              	.LBE564:
 518:apps/rssi/main.c **** 	sprintf(text, "%d", tone / 25);
 2433              		.loc 2 518 0
 2434 0f68 180095E5 		ldr	r0, [r5, #24]
 2435 0f6c 1910A0E3 		mov	r1, #25
 2436              	.LVL185:
 2437 0f70 FEFFFFEB 		bl	__aeabi_idiv
 2438              	.LVL186:
 2439 0f74 8C119FE5 		ldr	r1, .L203+336
 2440 0f78 0020A0E1 		mov	r2, r0
 2441 0f7c 18008DE2 		add	r0, sp, #24
 2442 0f80 FEFFFFEB 		bl	sprintf
 2443              	.LVL187:
 519:apps/rssi/main.c **** 	fb_putstr(text, -1);
 2444              		.loc 2 519 0
 2445 0f84 0010E0E3 		mvn	r1, #0
 2446 0f88 18008DE2 		add	r0, sp, #24
 2447 0f8c FEFFFFEB 		bl	fb_putstr
 2448              	.LVL188:
 2449              	.LBB566:
 2450              	.LBB567:
  76:include/fb/framebuffer.h **** 	framebuffer->flush();
 2451              		.loc 1 76 0
 2452 0f90 003094E5 		ldr	r3, [r4]
 2453 0f94 1CC093E5 		ldr	ip, [r3, #28]
 2454 0f98 0FE0A0E1 		mov	lr, pc
 2455 0f9c 1CFF2FE1 		bx	ip
 2456              	.LVL189:
 2457              	.LBE567:
 2458              	.LBE566:
 522:apps/rssi/main.c **** }
 2459              		.loc 2 522 0
 2460 0fa0 2CD08DE2 		add	sp, sp, #44
 2461              		@ sp needed
 2462 0fa4 F04FBDE8 		ldmfd	sp!, {r4, r5, r6, r7, r8, r9, r10, fp, lr}
 2463 0fa8 1EFF2FE1 		bx	lr
 2464              	.LVL190:
 2465              	.L123:
 2466 0fac 4220A0E3 		mov	r2, #66
 2467              	.L31:
 2468 0fb0 4130A0E3 		mov	r3, #65
 2469 0fb4 4DFCFFEA 		b	.L121
 2470              	.L204:
 2471              		.align	2
 2472              	.L203:
 2473 0fb8 00000000 		.word	framebuffer
 2474 0fbc 00000000 		.word	battery_info
 2475 0fc0 00000000 		.word	.LANCHOR0
 2476 0fc4 00000000 		.word	cursor
 2477 0fc8 46000000 		.word	.LC11
 2478 0fcc 00C0C000 		.word	12632064
 2479 0fd0 57000000 		.word	.LC12
 2480 0fd4 5D000000 		.word	.LC13
 2481 0fd8 00000000 		.word	power
 2482 0fdc 66000000 		.word	.LC14
 2483 0fe0 00000000 		.word	jiffies
 2484 0fe4 00000000 		.word	assign
 2485 0fe8 00000000 		.word	rach_when
 2486 0fec 70000000 		.word	.LC15
 2487 0ff0 00000000 		.word	ta
 2488 0ff4 7D000000 		.word	.LC16
 2489 0ff8 2A020000 		.word	554
 2490 0ffc 85000000 		.word	.LC17
 2491 1000 8B000000 		.word	.LC18
 2492 1004 95000000 		.word	.LC19
 2493 1008 A1000000 		.word	.LC20
 2494 100c A9000000 		.word	.LC21
 2495 1010 00000000 		.word	ul_max
 2496 1014 00000000 		.word	ul_levels
 2497 1018 B5000000 		.word	.LC22
 2498 101c BA000000 		.word	.LC23
 2499 1020 2A010000 		.word	298
 2500 1024 BE000000 		.word	.LC24
 2501 1028 75010000 		.word	373
 2502 102c C3000000 		.word	.LC25
 2503 1030 C8000000 		.word	.LC26
 2504 1034 00000000 		.word	.LANCHOR1
 2505 1038 00000000 		.word	bsic
 2506 103c CD000000 		.word	.LC27
 2507 1040 DB000000 		.word	.LC28
 2508 1044 00000000 		.word	si_1
 2509 1048 00000000 		.word	si_2
 2510 104c 00000000 		.word	si_2bis
 2511 1050 00000000 		.word	si_2ter
 2512 1054 00000000 		.word	si_3
 2513 1058 00000000 		.word	si_4
 2514 105c E3000000 		.word	.LC29
 2515 1060 00000000 		.word	mcc
 2516 1064 00000000 		.word	mnc
 2517 1068 00000000 		.word	lac
 2518 106c F0000000 		.word	.LC30
 2519 1070 FF000000 		.word	.LC31
 2520 1074 0D010000 		.word	.LC32
 2521 1078 27010000 		.word	.LC34
 2522 107c 00000000 		.word	cell_id
 2523 1080 1A010000 		.word	.LC33
 2524 1084 00000000 		.word	freq
 2525 1088 34010000 		.word	.LC35
 2526 108c 3B010000 		.word	.LC36
 2527 1090 40010000 		.word	.LC37
 2528 1094 00000000 		.word	nb_num
 2529 1098 47010000 		.word	.LC38
 2530 109c 00000000 		.word	input
 2531 10a0 50010000 		.word	.LC39
 2532 10a4 5C010000 		.word	.LC40
 2533 10a8 68010000 		.word	.LC41
 2534 10ac 71010000 		.word	.LC42
 2535 10b0 00000000 		.word	band
 2536 10b4 46480000 		.word	18502
 2537 10b8 664B0000 		.word	19302
 2538 10bc 73010000 		.word	.LC43
 2539 10c0 00000000 		.word	max_power
 2540 10c4 7F010000 		.word	.LC44
 2541 10c8 00000000 		.word	pm_spectrum
 2542 10cc 88010000 		.word	.LC45
 2543 10d0 8F010000 		.word	.LC46
 2544 10d4 2A030000 		.word	810
 2545 10d8 22000000 		.word	.LC3
 2546 10dc 2D000000 		.word	.LC5
 2547 10e0 27000000 		.word	.LC4
 2548 10e4 32000000 		.word	.LC6
 2549 10e8 93010000 		.word	.LC47
 2550 10ec 9B010000 		.word	.LC48
 2551 10f0 A6010000 		.word	.LC49
 2552 10f4 3E000000 		.word	.LC9
 2553 10f8 B1010000 		.word	.LC50
 2554 10fc 42000000 		.word	.LC10
 2555 1100 38000000 		.word	.LC7
 2556 1104 3B000000 		.word	.LC8
 2557 1108 BD010000 		.word	.LC51
 2558              		.cfi_endproc
 2559              	.LFE110:
 2561              		.section	.text.inc_dec_arfcn,"ax",%progbits
 2562              		.align	2
 2564              	inc_dec_arfcn:
 2565              	.LFB113:
 600:apps/rssi/main.c **** {
 2566              		.loc 2 600 0
 2567              		.cfi_startproc
 2568              		@ Function supports interworking.
 2569              		@ args = 0, pretend = 0, frame = 0
 2570              		@ frame_needed = 0, uses_anonymous_args = 0
 2571              	.LVL191:
 2572 0000 F0412DE9 		stmfd	sp!, {r4, r5, r6, r7, r8, lr}
 2573              	.LCFI7:
 2574              		.cfi_def_cfa_offset 24
 2575              		.cfi_offset 4, -24
 2576              		.cfi_offset 5, -20
 2577              		.cfi_offset 6, -16
 2578              		.cfi_offset 7, -12
 2579              		.cfi_offset 8, -8
 2580              		.cfi_offset 14, -4
 2581 0004 4C319FE5 		ldr	r3, .L238
 607:apps/rssi/main.c **** 			if (arfcn >= band->min && arfcn <= band->max)
 2582              		.loc 2 607 0
 2583 0008 4C619FE5 		ldr	r6, .L238+4
 2584 000c 00C093E5 		ldr	ip, [r3]
 2585 0010 B651D6E1 		ldrh	r5, [r6, #22]
 2586 0014 44819FE5 		ldr	r8, .L238+8
 604:apps/rssi/main.c **** 	for (i = 0; bands[i].max; i++) {
 2587              		.loc 2 604 0
 2588 0018 0040A0E3 		mov	r4, #0
 2589              	.LVL192:
 2590              	.L206:
 2591 001c 042088E0 		add	r2, r8, r4
 604:apps/rssi/main.c **** 	for (i = 0; bands[i].max; i++) {
 2592              		.loc 2 604 0 is_stmt 0 discriminator 1
 2593 0020 041092E5 		ldr	r1, [r2, #4]
 2594 0024 000051E3 		cmp	r1, #0
 2595 0028 30719FE5 		ldr	r7, .L238+8
 2596 002c 0C00000A 		beq	.L235
 606:apps/rssi/main.c **** 		if (band->min < band->max) {
 2597              		.loc 2 606 0 is_stmt 1
 2598 0030 04C098E7 		ldr	ip, [r8, r4]
 2599 0034 01005CE1 		cmp	ip, r1
 2600 0038 020000AA 		bge	.L207
 607:apps/rssi/main.c **** 			if (arfcn >= band->min && arfcn <= band->max)
 2601              		.loc 2 607 0
 2602 003c 0C0055E1 		cmp	r5, ip
 2603 0040 040000BA 		blt	.L208
 2604 0044 010000EA 		b	.L210
 2605              	.L207:
 610:apps/rssi/main.c **** 			if (arfcn >= band->min || arfcn <= band->max)
 2606              		.loc 2 610 0
 2607 0048 0C0055E1 		cmp	r5, ip
 2608 004c 070000AA 		bge	.L209
 2609              	.L210:
 610:apps/rssi/main.c **** 			if (arfcn >= band->min || arfcn <= band->max)
 2610              		.loc 2 610 0 is_stmt 0 discriminator 1
 2611 0050 010055E1 		cmp	r5, r1
 2612 0054 050000DA 		ble	.L209
 2613              	.L208:
 2614 0058 184084E2 		add	r4, r4, #24
 605:apps/rssi/main.c **** 		band = &bands[i];
 2615              		.loc 2 605 0 is_stmt 1
 2616 005c 02C0A0E1 		mov	ip, r2
 2617 0060 EDFFFFEA 		b	.L206
 2618              	.L235:
 2619 0064 00C083E5 		str	ip, [r3]
 2620              	.LVL193:
 2621              	.L226:
 615:apps/rssi/main.c **** 		return -EINVAL;
 2622              		.loc 2 615 0
 2623 0068 1500E0E3 		mvn	r0, #21
 2624 006c 370000EA 		b	.L229
 2625              	.LVL194:
 2626              	.L209:
 617:apps/rssi/main.c **** 	if (inc) {
 2627              		.loc 2 617 0
 2628 0070 000050E3 		cmp	r0, #0
 2629 0074 002083E5 		str	r2, [r3]
 2630 0078 1000000A 		beq	.L236
 618:apps/rssi/main.c **** 		if (arfcn == band->max)
 2631              		.loc 2 618 0
 2632 007c B6C1D6E1 		ldrh	ip, [r6, #22]
 2633 0080 01005CE1 		cmp	ip, r1
 2634 0084 D0009FE5 		ldr	r0, .L238+4
 2635              	.LVL195:
 619:apps/rssi/main.c **** 			arfcn = band->next;
 2636              		.loc 2 619 0
 2637 0088 0C209205 		ldreq	r2, [r2, #12]
 618:apps/rssi/main.c **** 		if (arfcn == band->max)
 2638              		.loc 2 618 0
 2639 008c 0500000A 		beq	.L232
 620:apps/rssi/main.c **** 		else if (arfcn == 1023)
 2640              		.loc 2 620 0
 2641 0090 CC209FE5 		ldr	r2, .L238+12
 2642 0094 02005CE1 		cmp	ip, r2
 623:apps/rssi/main.c **** 			arfcn++;
 2643              		.loc 2 623 0
 2644 0098 01C08C12 		addne	ip, ip, #1
 2645 009c B6C1C011 		strneh	ip, [r0, #22]	@ movhi
 620:apps/rssi/main.c **** 		else if (arfcn == 1023)
 2646              		.loc 2 620 0
 2647 00a0 0100001A 		bne	.L215
 621:apps/rssi/main.c **** 			arfcn = 0;
 2648              		.loc 2 621 0
 2649 00a4 0020A0E3 		mov	r2, #0
 2650              	.L232:
 2651 00a8 B621C0E1 		strh	r2, [r0, #22]	@ movhi
 2652              	.L215:
 636:apps/rssi/main.c **** 			if (arfcn >= band->min && arfcn <= band->max)
 2653              		.loc 2 636 0 discriminator 1
 2654 00ac B6C1D6E1 		ldrh	ip, [r6, #22]
 2655 00b0 004093E5 		ldr	r4, [r3]
 2656 00b4 0000A0E3 		mov	r0, #0
 2657 00b8 A0509FE5 		ldr	r5, .L238+8
 2658 00bc 140000EA 		b	.L217
 2659              	.LVL196:
 2660              	.L236:
 625:apps/rssi/main.c **** 		if (arfcn == band->min)
 2661              		.loc 2 625 0
 2662 00c0 B601D6E1 		ldrh	r0, [r6, #22]
 2663              	.LVL197:
 2664 00c4 0C0050E1 		cmp	r0, ip
 2665 00c8 8C109FE5 		ldr	r1, .L238+4
 626:apps/rssi/main.c **** 			arfcn = band->prev;
 2666              		.loc 2 626 0
 2667 00cc 08209205 		ldreq	r2, [r2, #8]
 625:apps/rssi/main.c **** 		if (arfcn == band->min)
 2668              		.loc 2 625 0
 2669 00d0 0200000A 		beq	.L231
 627:apps/rssi/main.c **** 		else if (arfcn == 0)
 2670              		.loc 2 627 0
 2671 00d4 000050E3 		cmp	r0, #0
 2672 00d8 0200001A 		bne	.L219
 628:apps/rssi/main.c **** 			arfcn = 1023;
 2673              		.loc 2 628 0
 2674 00dc 3F2BE0E3 		mvn	r2, #64512
 2675              	.L231:
 2676 00e0 B621C1E1 		strh	r2, [r1, #22]	@ movhi
 2677 00e4 F0FFFFEA 		b	.L215
 2678              	.L219:
 630:apps/rssi/main.c **** 			arfcn--;
 2679              		.loc 2 630 0
 2680 00e8 010040E2 		sub	r0, r0, #1
 2681 00ec B601C1E1 		strh	r0, [r1, #22]	@ movhi
 2682 00f0 EDFFFFEA 		b	.L215
 2683              	.L225:
 635:apps/rssi/main.c **** 		if (band->min < band->max) {
 2684              		.loc 2 635 0
 2685 00f4 054090E7 		ldr	r4, [r0, r5]
 2686 00f8 010054E1 		cmp	r4, r1
 2687 00fc 0260A0E1 		mov	r6, r2
 2688 0100 080000AA 		bge	.L220
 636:apps/rssi/main.c **** 			if (arfcn >= band->min && arfcn <= band->max)
 2689              		.loc 2 636 0
 2690 0104 04005CE1 		cmp	ip, r4
 2691 0108 080000AA 		bge	.L223
 2692              	.L221:
 2693 010c 180080E2 		add	r0, r0, #24
 634:apps/rssi/main.c **** 		band = &bands[i];
 2694              		.loc 2 634 0
 2695 0110 0640A0E1 		mov	r4, r6
 2696              	.L217:
 2697 0114 002087E0 		add	r2, r7, r0
 633:apps/rssi/main.c **** 	for (i = 0; bands[i].max; i++) {
 2698              		.loc 2 633 0 discriminator 1
 2699 0118 041092E5 		ldr	r1, [r2, #4]
 2700 011c 000051E3 		cmp	r1, #0
 2701 0120 F3FFFF1A 		bne	.L225
 2702 0124 040000EA 		b	.L237
 2703              	.L220:
 639:apps/rssi/main.c **** 			if (arfcn >= band->min || arfcn <= band->max)
 2704              		.loc 2 639 0
 2705 0128 04005CE1 		cmp	ip, r4
 2706 012c 040000AA 		bge	.L222
 2707              	.L223:
 639:apps/rssi/main.c **** 			if (arfcn >= band->min || arfcn <= band->max)
 2708              		.loc 2 639 0 is_stmt 0 discriminator 1
 2709 0130 01005CE1 		cmp	ip, r1
 2710 0134 F4FFFFCA 		bgt	.L221
 2711 0138 010000EA 		b	.L222
 2712              	.L237:
 2713 013c 004083E5 		str	r4, [r3]
 2714 0140 C8FFFFEA 		b	.L226
 2715              	.L222:
 2716 0144 002083E5 		str	r2, [r3]
 646:apps/rssi/main.c **** 	refresh_display();
 2717              		.loc 2 646 0 is_stmt 1
 2718 0148 FEFFFFEB 		bl	refresh_display
 2719              	.LVL198:
 648:apps/rssi/main.c **** 	return 0;
 2720              		.loc 2 648 0
 2721 014c 0000A0E3 		mov	r0, #0
 2722              	.L229:
 649:apps/rssi/main.c **** }
 2723              		.loc 2 649 0
 2724 0150 F041BDE8 		ldmfd	sp!, {r4, r5, r6, r7, r8, lr}
 2725 0154 1EFF2FE1 		bx	lr
 2726              	.L239:
 2727              		.align	2
 2728              	.L238:
 2729 0158 00000000 		.word	band
 2730 015c 00000000 		.word	.LANCHOR0
 2731 0160 08000000 		.word	.LANCHOR1+8
 2732 0164 FF030000 		.word	1023
 2733              		.cfi_endproc
 2734              	.LFE113:
 2736              		.section	.text.msgb_put,"ax",%progbits
 2737              		.align	2
 2739              	msgb_put:
 2740              	.LFB47:
 2741              		.file 3 "../../shared/libosmocore/include/osmocom/core/msgb.h"
   1:../../shared/libosmocore/include/osmocom/core/msgb.h **** #ifndef _MSGB_H
   2:../../shared/libosmocore/include/osmocom/core/msgb.h **** #define _MSGB_H
   3:../../shared/libosmocore/include/osmocom/core/msgb.h **** 
   4:../../shared/libosmocore/include/osmocom/core/msgb.h **** /* (C) 2008 by Harald Welte <laforge@gnumonks.org>
   5:../../shared/libosmocore/include/osmocom/core/msgb.h ****  * All Rights Reserved
   6:../../shared/libosmocore/include/osmocom/core/msgb.h ****  *
   7:../../shared/libosmocore/include/osmocom/core/msgb.h ****  * This program is free software; you can redistribute it and/or modify
   8:../../shared/libosmocore/include/osmocom/core/msgb.h ****  * it under the terms of the GNU General Public License as published by
   9:../../shared/libosmocore/include/osmocom/core/msgb.h ****  * the Free Software Foundation; either version 2 of the License, or
  10:../../shared/libosmocore/include/osmocom/core/msgb.h ****  * (at your option) any later version.
  11:../../shared/libosmocore/include/osmocom/core/msgb.h ****  *
  12:../../shared/libosmocore/include/osmocom/core/msgb.h ****  * This program is distributed in the hope that it will be useful,
  13:../../shared/libosmocore/include/osmocom/core/msgb.h ****  * but WITHOUT ANY WARRANTY; without even the implied warranty of
  14:../../shared/libosmocore/include/osmocom/core/msgb.h ****  * MERCHANTABILITY or FITNESS FOR A PARTICULAR PURPOSE.  See the
  15:../../shared/libosmocore/include/osmocom/core/msgb.h ****  * GNU General Public License for more details.
  16:../../shared/libosmocore/include/osmocom/core/msgb.h ****  *
  17:../../shared/libosmocore/include/osmocom/core/msgb.h ****  * You should have received a copy of the GNU General Public License along
  18:../../shared/libosmocore/include/osmocom/core/msgb.h ****  * with this program; if not, write to the Free Software Foundation, Inc.,
  19:../../shared/libosmocore/include/osmocom/core/msgb.h ****  * 51 Franklin Street, Fifth Floor, Boston, MA 02110-1301 USA.
  20:../../shared/libosmocore/include/osmocom/core/msgb.h ****  *
  21:../../shared/libosmocore/include/osmocom/core/msgb.h ****  */
  22:../../shared/libosmocore/include/osmocom/core/msgb.h **** 
  23:../../shared/libosmocore/include/osmocom/core/msgb.h **** #include <stdint.h>
  24:../../shared/libosmocore/include/osmocom/core/msgb.h **** #include <osmocom/core/linuxlist.h>
  25:../../shared/libosmocore/include/osmocom/core/msgb.h **** #include <osmocom/core/utils.h>
  26:../../shared/libosmocore/include/osmocom/core/msgb.h **** 
  27:../../shared/libosmocore/include/osmocom/core/msgb.h **** /*! \defgroup msgb Message buffers
  28:../../shared/libosmocore/include/osmocom/core/msgb.h ****  *  @{
  29:../../shared/libosmocore/include/osmocom/core/msgb.h ****  */
  30:../../shared/libosmocore/include/osmocom/core/msgb.h **** 
  31:../../shared/libosmocore/include/osmocom/core/msgb.h **** /*! \file msgb.h
  32:../../shared/libosmocore/include/osmocom/core/msgb.h ****  *  \brief Osmocom message buffers
  33:../../shared/libosmocore/include/osmocom/core/msgb.h ****  * The Osmocom message buffers are modelled after the 'struct skb'
  34:../../shared/libosmocore/include/osmocom/core/msgb.h ****  * inside the Linux kernel network stack.  As they exist in userspace,
  35:../../shared/libosmocore/include/osmocom/core/msgb.h ****  * they are much simplified.  However, terminology such as headroom,
  36:../../shared/libosmocore/include/osmocom/core/msgb.h ****  * tailroom, push/pull/put etc. remains the same.
  37:../../shared/libosmocore/include/osmocom/core/msgb.h ****  */
  38:../../shared/libosmocore/include/osmocom/core/msgb.h **** 
  39:../../shared/libosmocore/include/osmocom/core/msgb.h **** #define MSGB_DEBUG
  40:../../shared/libosmocore/include/osmocom/core/msgb.h **** 
  41:../../shared/libosmocore/include/osmocom/core/msgb.h **** /*! \brief Osmocom message buffer */
  42:../../shared/libosmocore/include/osmocom/core/msgb.h **** struct msgb {
  43:../../shared/libosmocore/include/osmocom/core/msgb.h **** 	struct llist_head list; /*!< \brief linked list header */
  44:../../shared/libosmocore/include/osmocom/core/msgb.h **** 
  45:../../shared/libosmocore/include/osmocom/core/msgb.h **** 
  46:../../shared/libosmocore/include/osmocom/core/msgb.h **** 	/* Part of which TRX logical channel we were received / transmitted */
  47:../../shared/libosmocore/include/osmocom/core/msgb.h **** 	/* FIXME: move them into the control buffer */
  48:../../shared/libosmocore/include/osmocom/core/msgb.h **** 	union {
  49:../../shared/libosmocore/include/osmocom/core/msgb.h **** 		void *dst; /*!< \brief reference of origin/destination */
  50:../../shared/libosmocore/include/osmocom/core/msgb.h **** 		struct gsm_bts_trx *trx;
  51:../../shared/libosmocore/include/osmocom/core/msgb.h **** 	};
  52:../../shared/libosmocore/include/osmocom/core/msgb.h **** 	struct gsm_lchan *lchan; /*!< \brief logical channel */
  53:../../shared/libosmocore/include/osmocom/core/msgb.h **** 
  54:../../shared/libosmocore/include/osmocom/core/msgb.h **** 	unsigned char *l1h; /*!< \brief pointer to Layer1 header (if any) */
  55:../../shared/libosmocore/include/osmocom/core/msgb.h **** 	unsigned char *l2h; /*!< \brief pointer to A-bis layer 2 header: OML, RSL(RLL), NS */
  56:../../shared/libosmocore/include/osmocom/core/msgb.h **** 	unsigned char *l3h; /*!< \brief pointer to Layer 3 header. For OML: FOM; RSL: 04.08; GPRS: BSSGP *
  57:../../shared/libosmocore/include/osmocom/core/msgb.h **** 	unsigned char *l4h; /*!< \brief pointer to layer 4 header */
  58:../../shared/libosmocore/include/osmocom/core/msgb.h **** 
  59:../../shared/libosmocore/include/osmocom/core/msgb.h **** 	unsigned long cb[5]; /*!< \brief control buffer */
  60:../../shared/libosmocore/include/osmocom/core/msgb.h **** 
  61:../../shared/libosmocore/include/osmocom/core/msgb.h **** 	uint16_t data_len;   /*!< \brief length of underlying data array */
  62:../../shared/libosmocore/include/osmocom/core/msgb.h **** 	uint16_t len;	     /*!< \brief length of bytes used in msgb */
  63:../../shared/libosmocore/include/osmocom/core/msgb.h **** 
  64:../../shared/libosmocore/include/osmocom/core/msgb.h **** 	unsigned char *head;	/*!< \brief start of underlying memory buffer */
  65:../../shared/libosmocore/include/osmocom/core/msgb.h **** 	unsigned char *tail;	/*!< \brief end of message in buffer */
  66:../../shared/libosmocore/include/osmocom/core/msgb.h **** 	unsigned char *data;	/*!< \brief start of message in buffer */
  67:../../shared/libosmocore/include/osmocom/core/msgb.h **** 	unsigned char _data[0]; /*!< \brief optional immediate data array */
  68:../../shared/libosmocore/include/osmocom/core/msgb.h **** };
  69:../../shared/libosmocore/include/osmocom/core/msgb.h **** 
  70:../../shared/libosmocore/include/osmocom/core/msgb.h **** extern struct msgb *msgb_alloc(uint16_t size, const char *name);
  71:../../shared/libosmocore/include/osmocom/core/msgb.h **** extern void msgb_free(struct msgb *m);
  72:../../shared/libosmocore/include/osmocom/core/msgb.h **** extern void msgb_enqueue(struct llist_head *queue, struct msgb *msg);
  73:../../shared/libosmocore/include/osmocom/core/msgb.h **** extern struct msgb *msgb_dequeue(struct llist_head *queue);
  74:../../shared/libosmocore/include/osmocom/core/msgb.h **** extern void msgb_reset(struct msgb *m);
  75:../../shared/libosmocore/include/osmocom/core/msgb.h **** uint16_t msgb_length(const struct msgb *msg);
  76:../../shared/libosmocore/include/osmocom/core/msgb.h **** 
  77:../../shared/libosmocore/include/osmocom/core/msgb.h **** #ifdef MSGB_DEBUG
  78:../../shared/libosmocore/include/osmocom/core/msgb.h **** #include <osmocom/core/panic.h>
  79:../../shared/libosmocore/include/osmocom/core/msgb.h **** #define MSGB_ABORT(msg, fmt, args ...) do {		\
  80:../../shared/libosmocore/include/osmocom/core/msgb.h **** 	osmo_panic("msgb(%p): " fmt, msg, ## args);	\
  81:../../shared/libosmocore/include/osmocom/core/msgb.h **** 	} while(0)
  82:../../shared/libosmocore/include/osmocom/core/msgb.h **** #else
  83:../../shared/libosmocore/include/osmocom/core/msgb.h **** #define MSGB_ABORT(msg, fmt, args ...)
  84:../../shared/libosmocore/include/osmocom/core/msgb.h **** #endif
  85:../../shared/libosmocore/include/osmocom/core/msgb.h **** 
  86:../../shared/libosmocore/include/osmocom/core/msgb.h **** /*! \brief obtain L1 header of msgb */
  87:../../shared/libosmocore/include/osmocom/core/msgb.h **** #define msgb_l1(m)	((void *)(m->l1h))
  88:../../shared/libosmocore/include/osmocom/core/msgb.h **** /*! \brief obtain L2 header of msgb */
  89:../../shared/libosmocore/include/osmocom/core/msgb.h **** #define msgb_l2(m)	((void *)(m->l2h))
  90:../../shared/libosmocore/include/osmocom/core/msgb.h **** /*! \brief obtain L3 header of msgb */
  91:../../shared/libosmocore/include/osmocom/core/msgb.h **** #define msgb_l3(m)	((void *)(m->l3h))
  92:../../shared/libosmocore/include/osmocom/core/msgb.h **** /*! \brief obtain SMS header of msgb */
  93:../../shared/libosmocore/include/osmocom/core/msgb.h **** #define msgb_sms(m)	((void *)(m->l4h))
  94:../../shared/libosmocore/include/osmocom/core/msgb.h **** 
  95:../../shared/libosmocore/include/osmocom/core/msgb.h **** /*! \brief determine length of L1 message
  96:../../shared/libosmocore/include/osmocom/core/msgb.h ****  *  \param[in] msgb message buffer
  97:../../shared/libosmocore/include/osmocom/core/msgb.h ****  *  \returns size of L1 message in bytes
  98:../../shared/libosmocore/include/osmocom/core/msgb.h ****  *
  99:../../shared/libosmocore/include/osmocom/core/msgb.h ****  * This function computes the number of bytes between the tail of the
 100:../../shared/libosmocore/include/osmocom/core/msgb.h ****  * message and the layer 1 header.
 101:../../shared/libosmocore/include/osmocom/core/msgb.h ****  */
 102:../../shared/libosmocore/include/osmocom/core/msgb.h **** static inline unsigned int msgb_l1len(const struct msgb *msgb)
 103:../../shared/libosmocore/include/osmocom/core/msgb.h **** {
 104:../../shared/libosmocore/include/osmocom/core/msgb.h **** 	return msgb->tail - (uint8_t *)msgb_l1(msgb);
 105:../../shared/libosmocore/include/osmocom/core/msgb.h **** }
 106:../../shared/libosmocore/include/osmocom/core/msgb.h **** 
 107:../../shared/libosmocore/include/osmocom/core/msgb.h **** /*! \brief determine length of L2 message
 108:../../shared/libosmocore/include/osmocom/core/msgb.h ****  *  \param[in] msgb message buffer
 109:../../shared/libosmocore/include/osmocom/core/msgb.h ****  *  \returns size of L2 message in bytes
 110:../../shared/libosmocore/include/osmocom/core/msgb.h ****  *
 111:../../shared/libosmocore/include/osmocom/core/msgb.h ****  * This function computes the number of bytes between the tail of the
 112:../../shared/libosmocore/include/osmocom/core/msgb.h ****  * message and the layer 2 header.
 113:../../shared/libosmocore/include/osmocom/core/msgb.h ****  */
 114:../../shared/libosmocore/include/osmocom/core/msgb.h **** static inline unsigned int msgb_l2len(const struct msgb *msgb)
 115:../../shared/libosmocore/include/osmocom/core/msgb.h **** {
 116:../../shared/libosmocore/include/osmocom/core/msgb.h **** 	return msgb->tail - (uint8_t *)msgb_l2(msgb);
 117:../../shared/libosmocore/include/osmocom/core/msgb.h **** }
 118:../../shared/libosmocore/include/osmocom/core/msgb.h **** 
 119:../../shared/libosmocore/include/osmocom/core/msgb.h **** /*! \brief determine length of L3 message
 120:../../shared/libosmocore/include/osmocom/core/msgb.h ****  *  \param[in] msgb message buffer
 121:../../shared/libosmocore/include/osmocom/core/msgb.h ****  *  \returns size of L3 message in bytes
 122:../../shared/libosmocore/include/osmocom/core/msgb.h ****  *
 123:../../shared/libosmocore/include/osmocom/core/msgb.h ****  * This function computes the number of bytes between the tail of the
 124:../../shared/libosmocore/include/osmocom/core/msgb.h ****  * message and the layer 3 header.
 125:../../shared/libosmocore/include/osmocom/core/msgb.h ****  */
 126:../../shared/libosmocore/include/osmocom/core/msgb.h **** static inline unsigned int msgb_l3len(const struct msgb *msgb)
 127:../../shared/libosmocore/include/osmocom/core/msgb.h **** {
 128:../../shared/libosmocore/include/osmocom/core/msgb.h **** 	return msgb->tail - (uint8_t *)msgb_l3(msgb);
 129:../../shared/libosmocore/include/osmocom/core/msgb.h **** }
 130:../../shared/libosmocore/include/osmocom/core/msgb.h **** 
 131:../../shared/libosmocore/include/osmocom/core/msgb.h **** /*! \brief determine the length of the header
 132:../../shared/libosmocore/include/osmocom/core/msgb.h ****  *  \param[in] msgb message buffer
 133:../../shared/libosmocore/include/osmocom/core/msgb.h ****  *  \returns number of bytes between start of buffer and start of msg
 134:../../shared/libosmocore/include/osmocom/core/msgb.h ****  *
 135:../../shared/libosmocore/include/osmocom/core/msgb.h ****  * This function computes the length difference between the underlying
 136:../../shared/libosmocore/include/osmocom/core/msgb.h ****  * data buffer and the used section of the \a msgb.
 137:../../shared/libosmocore/include/osmocom/core/msgb.h ****  */
 138:../../shared/libosmocore/include/osmocom/core/msgb.h **** static inline unsigned int msgb_headlen(const struct msgb *msgb)
 139:../../shared/libosmocore/include/osmocom/core/msgb.h **** {
 140:../../shared/libosmocore/include/osmocom/core/msgb.h **** 	return msgb->len - msgb->data_len;
 141:../../shared/libosmocore/include/osmocom/core/msgb.h **** }
 142:../../shared/libosmocore/include/osmocom/core/msgb.h **** 
 143:../../shared/libosmocore/include/osmocom/core/msgb.h **** /*! \brief determine how much tail room is left in msgb
 144:../../shared/libosmocore/include/osmocom/core/msgb.h ****  *  \param[in] msgb message buffer
 145:../../shared/libosmocore/include/osmocom/core/msgb.h ****  *  \returns number of bytes remaining at end of msgb
 146:../../shared/libosmocore/include/osmocom/core/msgb.h ****  *
 147:../../shared/libosmocore/include/osmocom/core/msgb.h ****  * This function computes the amount of octets left in the underlying
 148:../../shared/libosmocore/include/osmocom/core/msgb.h ****  * data buffer after the end of the message.
 149:../../shared/libosmocore/include/osmocom/core/msgb.h ****  */
 150:../../shared/libosmocore/include/osmocom/core/msgb.h **** static inline int msgb_tailroom(const struct msgb *msgb)
 151:../../shared/libosmocore/include/osmocom/core/msgb.h **** {
 152:../../shared/libosmocore/include/osmocom/core/msgb.h **** 	return (msgb->head + msgb->data_len) - msgb->tail;
 153:../../shared/libosmocore/include/osmocom/core/msgb.h **** }
 154:../../shared/libosmocore/include/osmocom/core/msgb.h **** 
 155:../../shared/libosmocore/include/osmocom/core/msgb.h **** /*! \brief determine the amount of headroom in msgb
 156:../../shared/libosmocore/include/osmocom/core/msgb.h ****  *  \param[in] msgb message buffer
 157:../../shared/libosmocore/include/osmocom/core/msgb.h ****  *  \returns number of bytes left ahead of message start in msgb
 158:../../shared/libosmocore/include/osmocom/core/msgb.h ****  *
 159:../../shared/libosmocore/include/osmocom/core/msgb.h ****  * This function computes the amount of bytes left in the underlying
 160:../../shared/libosmocore/include/osmocom/core/msgb.h ****  * data buffer before the start of the actual message.
 161:../../shared/libosmocore/include/osmocom/core/msgb.h ****  */
 162:../../shared/libosmocore/include/osmocom/core/msgb.h **** static inline int msgb_headroom(const struct msgb *msgb)
 163:../../shared/libosmocore/include/osmocom/core/msgb.h **** {
 164:../../shared/libosmocore/include/osmocom/core/msgb.h **** 	return (msgb->data - msgb->head);
 165:../../shared/libosmocore/include/osmocom/core/msgb.h **** }
 166:../../shared/libosmocore/include/osmocom/core/msgb.h **** 
 167:../../shared/libosmocore/include/osmocom/core/msgb.h **** /*! \brief append data to end of message buffer
 168:../../shared/libosmocore/include/osmocom/core/msgb.h ****  *  \param[in] msgb message buffer
 169:../../shared/libosmocore/include/osmocom/core/msgb.h ****  *  \param[in] len number of bytes to append to message
 170:../../shared/libosmocore/include/osmocom/core/msgb.h ****  *  \returns pointer to start of newly-appended data
 171:../../shared/libosmocore/include/osmocom/core/msgb.h ****  *
 172:../../shared/libosmocore/include/osmocom/core/msgb.h ****  * This function will move the \a tail pointer of the message buffer \a
 173:../../shared/libosmocore/include/osmocom/core/msgb.h ****  * len bytes further, thus enlarging the message by \a len bytes.
 174:../../shared/libosmocore/include/osmocom/core/msgb.h ****  *
 175:../../shared/libosmocore/include/osmocom/core/msgb.h ****  * The return value is a pointer to start of the newly added section at
 176:../../shared/libosmocore/include/osmocom/core/msgb.h ****  * the end of the message and can be used for actually filling/copying
 177:../../shared/libosmocore/include/osmocom/core/msgb.h ****  * data into it.
 178:../../shared/libosmocore/include/osmocom/core/msgb.h ****  */
 179:../../shared/libosmocore/include/osmocom/core/msgb.h **** static inline unsigned char *msgb_put(struct msgb *msgb, unsigned int len)
 180:../../shared/libosmocore/include/osmocom/core/msgb.h **** {
 2742              		.loc 3 180 0
 2743              		.cfi_startproc
 2744              		@ Function supports interworking.
 2745              		@ args = 0, pretend = 0, frame = 0
 2746              		@ frame_needed = 0, uses_anonymous_args = 0
 2747              	.LVL199:
 2748              	.LBB570:
 2749              	.LBB571:
 152:../../shared/libosmocore/include/osmocom/core/msgb.h **** 	return (msgb->head + msgb->data_len) - msgb->tail;
 2750              		.loc 3 152 0
 2751 0000 B433D0E1 		ldrh	r3, [r0, #52]
 2752 0004 382090E5 		ldr	r2, [r0, #56]
 2753              	.LBE571:
 2754              	.LBE570:
 2755              		.loc 3 180 0
 2756 0008 70402DE9 		stmfd	sp!, {r4, r5, r6, lr}
 2757              	.LCFI8:
 2758              		.cfi_def_cfa_offset 16
 2759              		.cfi_offset 4, -16
 2760              		.cfi_offset 5, -12
 2761              		.cfi_offset 6, -8
 2762              		.cfi_offset 14, -4
 181:../../shared/libosmocore/include/osmocom/core/msgb.h **** 	unsigned char *tmp = msgb->tail;
 2763              		.loc 3 181 0
 2764 000c 3C6090E5 		ldr	r6, [r0, #60]
 2765              	.LVL200:
 2766              	.LBB573:
 2767              	.LBB572:
 152:../../shared/libosmocore/include/osmocom/core/msgb.h **** 	return (msgb->head + msgb->data_len) - msgb->tail;
 2768              		.loc 3 152 0
 2769 0010 032082E0 		add	r2, r2, r3
 2770 0014 022066E0 		rsb	r2, r6, r2
 2771              	.LBE572:
 2772              	.LBE573:
 182:../../shared/libosmocore/include/osmocom/core/msgb.h **** 	if (msgb_tailroom(msgb) < (int) len)
 2773              		.loc 3 182 0
 2774 0018 010052E1 		cmp	r2, r1
 180:../../shared/libosmocore/include/osmocom/core/msgb.h **** {
 2775              		.loc 3 180 0
 2776 001c 0040A0E1 		mov	r4, r0
 2777 0020 0150A0E1 		mov	r5, r1
 2778              		.loc 3 182 0
 183:../../shared/libosmocore/include/osmocom/core/msgb.h **** 		MSGB_ABORT(msgb, "Not enough tailroom msgb_push (%u < %u)\n",
 2779              		.loc 3 183 0
 2780 0024 2C009FB5 		ldrlt	r0, .L242
 2781              	.LVL201:
 2782 0028 0410A0B1 		movlt	r1, r4
 2783              	.LVL202:
 2784 002c 0530A0B1 		movlt	r3, r5
 2785 0030 FEFFFFBB 		bllt	osmo_panic
 2786              	.LVL203:
 2787              	.L241:
 184:../../shared/libosmocore/include/osmocom/core/msgb.h **** 			   msgb_tailroom(msgb), len);
 185:../../shared/libosmocore/include/osmocom/core/msgb.h **** 	msgb->tail += len;
 2788              		.loc 3 185 0
 2789 0034 3C3094E5 		ldr	r3, [r4, #60]
 2790 0038 053083E0 		add	r3, r3, r5
 2791 003c 3C3084E5 		str	r3, [r4, #60]
 186:../../shared/libosmocore/include/osmocom/core/msgb.h **** 	msgb->len += len;
 2792              		.loc 3 186 0
 2793 0040 B633D4E1 		ldrh	r3, [r4, #54]
 2794 0044 035085E0 		add	r5, r5, r3
 2795              	.LVL204:
 187:../../shared/libosmocore/include/osmocom/core/msgb.h **** 	return tmp;
 188:../../shared/libosmocore/include/osmocom/core/msgb.h **** }
 2796              		.loc 3 188 0
 2797 0048 0600A0E1 		mov	r0, r6
 186:../../shared/libosmocore/include/osmocom/core/msgb.h **** 	msgb->len += len;
 2798              		.loc 3 186 0
 2799 004c B653C4E1 		strh	r5, [r4, #54]	@ movhi
 2800              		.loc 3 188 0
 2801 0050 7040BDE8 		ldmfd	sp!, {r4, r5, r6, lr}
 2802              	.LVL205:
 2803 0054 1EFF2FE1 		bx	lr
 2804              	.L243:
 2805              		.align	2
 2806              	.L242:
 2807 0058 C0010000 		.word	.LC52
 2808              		.cfi_endproc
 2809              	.LFE47:
 2811              		.section	.text.request_ul_levels,"ax",%progbits
 2812              		.align	2
 2814              	request_ul_levels:
 2815              	.LFB128:
1061:apps/rssi/main.c **** {
 2816              		.loc 2 1061 0
 2817              		.cfi_startproc
 2818              		@ Function supports interworking.
 2819              		@ args = 0, pretend = 0, frame = 0
 2820              		@ frame_needed = 0, uses_anonymous_args = 0
 2821              	.LVL206:
 2822 0000 38402DE9 		stmfd	sp!, {r3, r4, r5, lr}
 2823              	.LCFI9:
 2824              		.cfi_def_cfa_offset 16
 2825              		.cfi_offset 3, -16
 2826              		.cfi_offset 4, -12
 2827              		.cfi_offset 5, -8
 2828              		.cfi_offset 14, -4
1061:apps/rssi/main.c **** {
 2829              		.loc 2 1061 0
 2830 0004 0040A0E1 		mov	r4, r0
1062:apps/rssi/main.c **** 	struct msgb *msg = l1ctl_msgb_alloc(L1CTL_NEIGH_PM_REQ);
 2831              		.loc 2 1062 0
 2832 0008 1A00A0E3 		mov	r0, #26
 2833              	.LVL207:
 2834 000c FEFFFFEB 		bl	l1ctl_msgb_alloc
 2835              	.LVL208:
1063:apps/rssi/main.c **** 	struct l1ctl_neigh_pm_req *pm_req =
 2836              		.loc 2 1063 0
 2837 0010 C210A0E3 		mov	r1, #194
1062:apps/rssi/main.c **** 	struct msgb *msg = l1ctl_msgb_alloc(L1CTL_NEIGH_PM_REQ);
 2838              		.loc 2 1062 0
 2839 0014 0050A0E1 		mov	r5, r0
 2840              	.LVL209:
1063:apps/rssi/main.c **** 	struct l1ctl_neigh_pm_req *pm_req =
 2841              		.loc 2 1063 0
 2842 0018 FEFFFFEB 		bl	msgb_put
 2843              	.LVL210:
1067:apps/rssi/main.c **** 	if (pcs && a >= PCS_MIN && a <= PCS_MAX)
 2844              		.loc 2 1067 0
 2845 001c 84309FE5 		ldr	r3, .L256
 2846 0020 102093E5 		ldr	r2, [r3, #16]
 2847 0024 000052E3 		cmp	r2, #0
 2848 0028 0400000A 		beq	.L245
1067:apps/rssi/main.c **** 	if (pcs && a >= PCS_MIN && a <= PCS_MAX)
 2849              		.loc 2 1067 0 is_stmt 0 discriminator 1
 2850 002c 021C44E2 		sub	r1, r4, #512
 2851 0030 74209FE5 		ldr	r2, .L256+4
 2852 0034 0118A0E1 		mov	r1, r1, asl #16
 2853 0038 210852E1 		cmp	r2, r1, lsr #16
1068:apps/rssi/main.c **** 		a |= ARFCN_PCS;
 2854              		.loc 2 1068 0 is_stmt 1 discriminator 1
 2855 003c 02498423 		orrcs	r4, r4, #32768
 2856              	.LVL211:
 2857              	.L245:
1069:apps/rssi/main.c **** 	if (uplink)
 2858              		.loc 2 1069 0
 2859 0040 083093E5 		ldr	r3, [r3, #8]
 2860 0044 000053E3 		cmp	r3, #0
1070:apps/rssi/main.c **** 		a |= ARFCN_UPLINK;
 2861              		.loc 2 1070 0
 2862 0048 01498413 		orrne	r4, r4, #16384
 2863              	.LVL212:
1071:apps/rssi/main.c **** 	pm_req->n = 8;
 2864              		.loc 2 1071 0
 2865 004c 0830A0E3 		mov	r3, #8
 2866 0050 0030C0E5 		strb	r3, [r0]
 2867              	.LVL213:
 2868              	.LBB574:
 2869              	.LBB575:
 2870              		.file 4 "include/swab.h"
   1:include/swab.h **** #ifndef _LINUX_SWAB_H
   2:include/swab.h **** #define _LINUX_SWAB_H
   3:include/swab.h **** 
   4:include/swab.h **** #include <stdint.h>
   5:include/swab.h **** #include <defines.h>
   6:include/swab.h **** #include <asm/swab.h>
   7:include/swab.h **** 
   8:include/swab.h **** /*
   9:include/swab.h ****  * casts are necessary for constants, because we never know how for sure
  10:include/swab.h ****  * how U/UL/ULL map to uint16_t, uint32_t, uint64_t. At least not in a portable way.
  11:include/swab.h ****  */
  12:include/swab.h **** #define ___constant_swab16(x) ((uint16_t)(				\
  13:include/swab.h **** 	(((uint16_t)(x) & (uint16_t)0x00ffU) << 8) |			\
  14:include/swab.h **** 	(((uint16_t)(x) & (uint16_t)0xff00U) >> 8)))
  15:include/swab.h **** 
  16:include/swab.h **** #define ___constant_swab32(x) ((uint32_t)(				\
  17:include/swab.h **** 	(((uint32_t)(x) & (uint32_t)0x000000ffUL) << 24) |		\
  18:include/swab.h **** 	(((uint32_t)(x) & (uint32_t)0x0000ff00UL) <<  8) |		\
  19:include/swab.h **** 	(((uint32_t)(x) & (uint32_t)0x00ff0000UL) >>  8) |		\
  20:include/swab.h **** 	(((uint32_t)(x) & (uint32_t)0xff000000UL) >> 24)))
  21:include/swab.h **** 
  22:include/swab.h **** #define ___constant_swab64(x) ((uint64_t)(				\
  23:include/swab.h **** 	(((uint64_t)(x) & (uint64_t)0x00000000000000ffULL) << 56) |	\
  24:include/swab.h **** 	(((uint64_t)(x) & (uint64_t)0x000000000000ff00ULL) << 40) |	\
  25:include/swab.h **** 	(((uint64_t)(x) & (uint64_t)0x0000000000ff0000ULL) << 24) |	\
  26:include/swab.h **** 	(((uint64_t)(x) & (uint64_t)0x00000000ff000000ULL) <<  8) |	\
  27:include/swab.h **** 	(((uint64_t)(x) & (uint64_t)0x000000ff00000000ULL) >>  8) |	\
  28:include/swab.h **** 	(((uint64_t)(x) & (uint64_t)0x0000ff0000000000ULL) >> 24) |	\
  29:include/swab.h **** 	(((uint64_t)(x) & (uint64_t)0x00ff000000000000ULL) >> 40) |	\
  30:include/swab.h **** 	(((uint64_t)(x) & (uint64_t)0xff00000000000000ULL) >> 56)))
  31:include/swab.h **** 
  32:include/swab.h **** #define ___constant_swahw32(x) ((uint32_t)(			\
  33:include/swab.h **** 	(((uint32_t)(x) & (uint32_t)0x0000ffffUL) << 16) |		\
  34:include/swab.h **** 	(((uint32_t)(x) & (uint32_t)0xffff0000UL) >> 16)))
  35:include/swab.h **** 
  36:include/swab.h **** #define ___constant_swahb32(x) ((uint32_t)(			\
  37:include/swab.h **** 	(((uint32_t)(x) & (uint32_t)0x00ff00ffUL) << 8) |		\
  38:include/swab.h **** 	(((uint32_t)(x) & (uint32_t)0xff00ff00UL) >> 8)))
  39:include/swab.h **** 
  40:include/swab.h **** /*
  41:include/swab.h ****  * Implement the following as inlines, but define the interface using
  42:include/swab.h ****  * macros to allow constant folding when possible:
  43:include/swab.h ****  * ___swab16, ___swab32, ___swab64, ___swahw32, ___swahb32
  44:include/swab.h ****  */
  45:include/swab.h **** 
  46:include/swab.h **** static inline __attribute_const__ uint16_t __fswab16(uint16_t val)
  47:include/swab.h **** {
  48:include/swab.h **** #ifdef __arch_swab16
  49:include/swab.h **** 	return __arch_swab16(val);
  50:include/swab.h **** #else
  51:include/swab.h **** 	return ___constant_swab16(val);
 2871              		.loc 4 51 0
 2872 0054 3433A0E1 		mov	r3, r4, lsr r3
 2873 0058 044483E1 		orr	r4, r3, r4, asl #8
 2874 005c 0448A0E1 		mov	r4, r4, asl #16
 2875 0060 2418A0E1 		mov	r1, r4, lsr #16
 2876 0064 0020A0E1 		mov	r2, r0
 2877              	.LBE575:
 2878              	.LBE574:
1072:apps/rssi/main.c **** 	for (i = 0; i < 8; i++) {
 2879              		.loc 2 1072 0
 2880 0068 0030A0E3 		mov	r3, #0
1073:apps/rssi/main.c **** 		pm_req->band_arfcn[i] = htons(a);
 2881              		.loc 2 1073 0
 2882 006c FF1001E2 		and	r1, r1, #255
 2883 0070 244CA0E1 		mov	r4, r4, lsr #24
 2884              	.LVL214:
 2885              	.L248:
 2886 0074 83C080E0 		add	ip, r0, r3, asl #1
 2887 0078 0210CCE5 		strb	r1, [ip, #2]
 2888 007c 0340CCE5 		strb	r4, [ip, #3]
1074:apps/rssi/main.c **** 		pm_req->tn[i] = i;
 2889              		.loc 2 1074 0
 2890 0080 8230C2E5 		strb	r3, [r2, #130]
1072:apps/rssi/main.c **** 	for (i = 0; i < 8; i++) {
 2891              		.loc 2 1072 0
 2892 0084 013083E2 		add	r3, r3, #1
 2893              	.LVL215:
 2894 0088 080053E3 		cmp	r3, #8
 2895 008c 012082E2 		add	r2, r2, #1
 2896 0090 F7FFFF1A 		bne	.L248
1076:apps/rssi/main.c **** 	l1a_l23_rx(SC_DLCI_L1A_L23, msg);
 2897              		.loc 2 1076 0
 2898 0094 0510A0E1 		mov	r1, r5
 2899 0098 0500A0E3 		mov	r0, #5
 2900              	.LVL216:
 2901 009c FEFFFFEB 		bl	l1a_l23_rx
 2902              	.LVL217:
1077:apps/rssi/main.c **** }
 2903              		.loc 2 1077 0
 2904 00a0 3840BDE8 		ldmfd	sp!, {r3, r4, r5, lr}
 2905              	.LVL218:
 2906 00a4 1EFF2FE1 		bx	lr
 2907              	.L257:
 2908              		.align	2
 2909              	.L256:
 2910 00a8 00000000 		.word	.LANCHOR0
 2911 00ac 2A010000 		.word	298
 2912              		.cfi_endproc
 2913              	.LFE128:
 2915              		.section	.text.exit_rach,"ax",%progbits
 2916              		.align	2
 2918              	exit_rach:
 2919              	.LFB131:
1231:apps/rssi/main.c **** {
 2920              		.loc 2 1231 0
 2921              		.cfi_startproc
 2922              		@ Function supports interworking.
 2923              		@ args = 0, pretend = 0, frame = 0
 2924              		@ frame_needed = 0, uses_anonymous_args = 0
 2925 0000 10402DE9 		stmfd	sp!, {r4, lr}
 2926              	.LCFI10:
 2927              		.cfi_def_cfa_offset 8
 2928              		.cfi_offset 4, -8
 2929              		.cfi_offset 14, -4
1232:apps/rssi/main.c **** 	rach = 0;
 2930              		.loc 2 1232 0
 2931 0004 1C409FE5 		ldr	r4, .L259
 2932 0008 0030A0E3 		mov	r3, #0
1234:apps/rssi/main.c **** 	request_ul_levels(ul_arfcn);
 2933              		.loc 2 1234 0
 2934 000c B401D4E1 		ldrh	r0, [r4, #20]
1232:apps/rssi/main.c **** 	rach = 0;
 2935              		.loc 2 1232 0
 2936 0010 003084E5 		str	r3, [r4]
1234:apps/rssi/main.c **** 	request_ul_levels(ul_arfcn);
 2937              		.loc 2 1234 0
 2938 0014 FEFFFFEB 		bl	request_ul_levels
 2939              	.LVL219:
1236:apps/rssi/main.c **** 	mode = MODE_SYNC;
 2940              		.loc 2 1236 0
 2941 0018 0330A0E3 		mov	r3, #3
 2942 001c 0430C4E5 		strb	r3, [r4, #4]
1238:apps/rssi/main.c **** }
 2943              		.loc 2 1238 0
 2944 0020 1040BDE8 		ldmfd	sp!, {r4, lr}
1237:apps/rssi/main.c **** 	refresh_display();
 2945              		.loc 2 1237 0
 2946 0024 FEFFFFEA 		b	refresh_display
 2947              	.LVL220:
 2948              	.L260:
 2949              		.align	2
 2950              	.L259:
 2951 0028 00000000 		.word	.LANCHOR0
 2952              		.cfi_endproc
 2953              	.LFE131:
 2955              		.section	.text.toggle_spectrum,"ax",%progbits
 2956              		.align	2
 2958              	toggle_spectrum:
 2959              	.LFB117:
 696:apps/rssi/main.c **** {
 2960              		.loc 2 696 0
 2961              		.cfi_startproc
 2962              		@ Function supports interworking.
 2963              		@ args = 0, pretend = 0, frame = 0
 2964              		@ frame_needed = 0, uses_anonymous_args = 0
 2965 0000 10402DE9 		stmfd	sp!, {r4, lr}
 2966              	.LCFI11:
 2967              		.cfi_def_cfa_offset 8
 2968              		.cfi_offset 4, -8
 2969              		.cfi_offset 14, -4
 697:apps/rssi/main.c **** 	if (mode == MODE_MAIN) {
 2970              		.loc 2 697 0
 2971 0004 3C409FE5 		ldr	r4, .L265
 2972 0008 0430D4E5 		ldrb	r3, [r4, #4]	@ zero_extendqisi2
 2973 000c 000053E3 		cmp	r3, #0
 698:apps/rssi/main.c **** 		mode = MODE_SPECTRUM;
 2974              		.loc 2 698 0
 2975 0010 0120A003 		moveq	r2, #1
 2976 0014 0420C405 		streqb	r2, [r4, #4]
 697:apps/rssi/main.c **** 	if (mode == MODE_MAIN) {
 2977              		.loc 2 697 0
 2978 0018 0300000A 		beq	.L264
 700:apps/rssi/main.c **** 	} else if (mode == MODE_SPECTRUM) {
 2979              		.loc 2 700 0
 2980 001c 010053E3 		cmp	r3, #1
 2981 0020 0200001A 		bne	.L263
 701:apps/rssi/main.c **** 		mode = MODE_MAIN;
 2982              		.loc 2 701 0
 2983 0024 0030A0E3 		mov	r3, #0
 2984 0028 0430C4E5 		strb	r3, [r4, #4]
 2985              	.L264:
 702:apps/rssi/main.c **** 		pm_mode = PM_IDLE;
 2986              		.loc 2 702 0
 2987 002c 1C30C4E5 		strb	r3, [r4, #28]
 2988              	.L263:
 704:apps/rssi/main.c **** 	l1s_reset();
 2989              		.loc 2 704 0
 2990 0030 FEFFFFEB 		bl	l1s_reset
 2991              	.LVL221:
 705:apps/rssi/main.c **** 	l1s_reset_hw();
 2992              		.loc 2 705 0
 2993 0034 FEFFFFEB 		bl	l1s_reset_hw
 2994              	.LVL222:
 706:apps/rssi/main.c **** 	pm_count = 0;
 2995              		.loc 2 706 0
 2996 0038 0030A0E3 		mov	r3, #0
 2997 003c 203084E5 		str	r3, [r4, #32]
 708:apps/rssi/main.c **** }
 2998              		.loc 2 708 0
 2999 0040 1040BDE8 		ldmfd	sp!, {r4, lr}
 707:apps/rssi/main.c **** 	refresh_display();
 3000              		.loc 2 707 0
 3001 0044 FEFFFFEA 		b	refresh_display
 3002              	.LVL223:
 3003              	.L266:
 3004              		.align	2
 3005              	.L265:
 3006 0048 00000000 		.word	.LANCHOR0
 3007              		.cfi_endproc
 3008              	.LFE117:
 3010              		.section	.text.l1a_l23_tx,"ax",%progbits
 3011              		.align	2
 3013              	l1a_l23_tx:
 3014              	.LFB139:
1384:apps/rssi/main.c **** {
 3015              		.loc 2 1384 0
 3016              		.cfi_startproc
 3017              		@ Function supports interworking.
 3018              		@ args = 0, pretend = 0, frame = 16
 3019              		@ frame_needed = 0, uses_anonymous_args = 0
 3020              	.LVL224:
 3021 0000 FF472DE9 		stmfd	sp!, {r0, r1, r2, r3, r4, r5, r6, r7, r8, r9, r10, lr}
 3022              	.LCFI12:
 3023              		.cfi_def_cfa_offset 48
 3024              		.cfi_offset 0, -48
 3025              		.cfi_offset 1, -44
 3026              		.cfi_offset 2, -40
 3027              		.cfi_offset 3, -36
 3028              		.cfi_offset 4, -32
 3029              		.cfi_offset 5, -28
 3030              		.cfi_offset 6, -24
 3031              		.cfi_offset 7, -20
 3032              		.cfi_offset 8, -16
 3033              		.cfi_offset 9, -12
 3034              		.cfi_offset 10, -8
 3035              		.cfi_offset 14, -4
1385:apps/rssi/main.c **** 	struct l1ctl_hdr *l1h = (struct l1ctl_hdr *) msg->l1h;
 3036              		.loc 2 1385 0
 3037 0004 105090E5 		ldr	r5, [r0, #16]
 3038              	.LVL225:
1393:apps/rssi/main.c **** 	switch (l1h->msg_type) {
 3039              		.loc 2 1393 0
 3040 0008 0060D5E5 		ldrb	r6, [r5]	@ zero_extendqisi2
 3041 000c 090056E3 		cmp	r6, #9
1384:apps/rssi/main.c **** {
 3042              		.loc 2 1384 0
 3043 0010 0040A0E1 		mov	r4, r0
1393:apps/rssi/main.c **** 	switch (l1h->msg_type) {
 3044              		.loc 2 1393 0
 3045 0014 1400000A 		beq	.L269
 3046 0018 0400008A 		bhi	.L270
 3047 001c 020056E3 		cmp	r6, #2
 3048 0020 4500000A 		beq	.L271
 3049 0024 030056E3 		cmp	r6, #3
 3050 0028 4D00000A 		beq	.L272
 3051 002c FC0000EA 		b	.L268
 3052              	.L270:
 3053 0030 0C0056E3 		cmp	r6, #12
 3054 0034 E000000A 		beq	.L273
 3055 0038 1B0056E3 		cmp	r6, #27
 3056 003c F800001A 		bne	.L268
 3057              	.LVL226:
1450:apps/rssi/main.c **** 			if (!max || ul_levels[pm_ind->tn] > ul_max[pm_ind->tn])
 3058              		.loc 2 1450 0
 3059 0040 F0339FE5 		ldr	r3, .L337
1448:apps/rssi/main.c **** 			ul_levels[pm_ind->tn] = pm_ind->pm[0];
 3060              		.loc 2 1448 0
 3061 0044 F0139FE5 		ldr	r1, .L337+4
1450:apps/rssi/main.c **** 			if (!max || ul_levels[pm_ind->tn] > ul_max[pm_ind->tn])
 3062              		.loc 2 1450 0
 3063 0048 0C6093E5 		ldr	r6, [r3, #12]
 3064 004c EC339FE5 		ldr	r3, .L337+8
1447:apps/rssi/main.c **** 			(uint8_t *) pm_ind < msg->tail; pm_ind++) {
 3065              		.loc 2 1447 0
 3066 0050 3CE090E5 		ldr	lr, [r0, #60]
 3067 0054 B020D3E1 		ldrh	r2, [r3]
 3068 0058 0A5085E2 		add	r5, r5, #10
 3069              	.LVL227:
 3070 005c 03C0A0E1 		mov	ip, r3
 3071 0060 0170A0E1 		mov	r7, r1
 3072 0064 D8039FE5 		ldr	r0, .L337+12
 3073              	.LVL228:
1446:apps/rssi/main.c **** 		for (pm_ind = (struct l1ctl_neigh_pm_ind *) l1h->data;
 3074              		.loc 2 1446 0
 3075 0068 CA0000EA 		b	.L307
 3076              	.LVL229:
 3077              	.L269:
1395:apps/rssi/main.c **** 		if (pm_mode == PM_SENT) {
 3078              		.loc 2 1395 0
 3079 006c C4239FE5 		ldr	r2, .L337
 3080 0070 1C30D2E5 		ldrb	r3, [r2, #28]	@ zero_extendqisi2
 3081 0074 010053E3 		cmp	r3, #1
 3082 0078 0700001A 		bne	.L275
 3083              	.LVL230:
1397:apps/rssi/main.c **** 			pm_meas[pm_count] = pmr->pm[0];
 3084              		.loc 2 1397 0
 3085 007c 203092E5 		ldr	r3, [r2, #32]
 3086 0080 0600D5E5 		ldrb	r0, [r5, #6]	@ zero_extendqisi2
 3087              	.LVL231:
 3088 0084 BC139FE5 		ldr	r1, .L337+16
 3089 0088 030181E7 		str	r0, [r1, r3, asl #2]
1398:apps/rssi/main.c **** 			pm_count++;
 3090              		.loc 2 1398 0
 3091 008c 013083E2 		add	r3, r3, #1
 3092 0090 203082E5 		str	r3, [r2, #32]
1399:apps/rssi/main.c **** 			pm_mode = PM_RESULT;
 3093              		.loc 2 1399 0
 3094 0094 0430A0E3 		mov	r3, #4
 3095 0098 1C30C2E5 		strb	r3, [r2, #28]
 3096              	.L275:
1401:apps/rssi/main.c **** 		if (pm_mode == PM_RANGE_SENT) {
 3097              		.loc 2 1401 0
 3098 009c 1C30D2E5 		ldrb	r3, [r2, #28]	@ zero_extendqisi2
 3099 00a0 020053E3 		cmp	r3, #2
 3100 00a4 1F00001A 		bne	.L277
1404:apps/rssi/main.c **** 				if (!max || pm_spectrum[ntohs(pmr->band_arfcn) & 1023] < pmr->pm[0])
 3101              		.loc 2 1404 0
 3102 00a8 88339FE5 		ldr	r3, .L337
 3103 00ac 98139FE5 		ldr	r1, .L337+20
 3104 00b0 0C6093E5 		ldr	r6, [r3, #12]
 3105 00b4 083085E2 		add	r3, r5, #8
 3106              	.L278:
1402:apps/rssi/main.c **** 			for (pmr = (struct l1ctl_pm_conf *) l1h->data;
 3107              		.loc 2 1402 0 discriminator 1
 3108 00b8 3C0094E5 		ldr	r0, [r4, #60]
 3109 00bc 04C043E2 		sub	ip, r3, #4
 3110 00c0 00005CE1 		cmp	ip, r0
 3111 00c4 1300002A 		bcs	.L334
1404:apps/rssi/main.c **** 				if (!max || pm_spectrum[ntohs(pmr->band_arfcn) & 1023] < pmr->pm[0])
 3112              		.loc 2 1404 0
 3113 00c8 000056E3 		cmp	r6, #0
 3114 00cc 040053E5 		ldrb	r0, [r3, #-4]	@ zero_extendqisi2
 3115 00d0 03C053E5 		ldrb	ip, [r3, #-3]	@ zero_extendqisi2
 3116 00d4 0700000A 		beq	.L279
1404:apps/rssi/main.c **** 				if (!max || pm_spectrum[ntohs(pmr->band_arfcn) & 1023] < pmr->pm[0])
 3117              		.loc 2 1404 0 is_stmt 0 discriminator 1
 3118 00d8 0CE480E1 		orr	lr, r0, ip, asl #8
 3119              	.LVL232:
 3120              	.LBB606:
 3121              	.LBB607:
 3122              		.loc 4 51 0 is_stmt 1 discriminator 1
 3123 00dc 2E74A0E1 		mov	r7, lr, lsr #8
 3124 00e0 0EE487E1 		orr	lr, r7, lr, asl #8
 3125              	.LVL233:
 3126              	.LBE607:
 3127              	.LBE606:
1404:apps/rssi/main.c **** 				if (!max || pm_spectrum[ntohs(pmr->band_arfcn) & 1023] < pmr->pm[0])
 3128              		.loc 2 1404 0 discriminator 1
 3129 00e4 0EEBA0E1 		mov	lr, lr, asl #22
 3130 00e8 2E7BD1E7 		ldrb	r7, [r1, lr, lsr #22]	@ zero_extendqisi2
 3131 00ec 02E053E5 		ldrb	lr, [r3, #-2]	@ zero_extendqisi2
 3132 00f0 0E0057E1 		cmp	r7, lr
 3133 00f4 0500002A 		bcs	.L280
 3134              	.LVL234:
 3135              	.L279:
1405:apps/rssi/main.c **** 					pm_spectrum[ntohs(pmr->band_arfcn) & 1023] = pmr->pm[0];
 3136              		.loc 2 1405 0
 3137 00f8 0C0480E1 		orr	r0, r0, ip, asl #8
 3138              	.LVL235:
 3139              	.LBB608:
 3140              	.LBB609:
 3141              		.loc 4 51 0
 3142 00fc 20E4A0E1 		mov	lr, r0, lsr #8
 3143              	.LBE609:
 3144              	.LBE608:
1405:apps/rssi/main.c **** 					pm_spectrum[ntohs(pmr->band_arfcn) & 1023] = pmr->pm[0];
 3145              		.loc 2 1405 0
 3146 0100 02C053E5 		ldrb	ip, [r3, #-2]	@ zero_extendqisi2
 3147              	.LBB611:
 3148              	.LBB610:
 3149              		.loc 4 51 0
 3150 0104 00048EE1 		orr	r0, lr, r0, asl #8
 3151              	.LVL236:
 3152              	.LBE610:
 3153              	.LBE611:
1405:apps/rssi/main.c **** 					pm_spectrum[ntohs(pmr->band_arfcn) & 1023] = pmr->pm[0];
 3154              		.loc 2 1405 0
 3155 0108 000BA0E1 		mov	r0, r0, asl #22
 3156 010c 20CBC1E7 		strb	ip, [r1, r0, lsr #22]
 3157              	.LVL237:
 3158              	.L280:
 3159 0110 043083E2 		add	r3, r3, #4
 3160              	.LVL238:
 3161 0114 E7FFFFEA 		b	.L278
 3162              	.LVL239:
 3163              	.L334:
1407:apps/rssi/main.c **** 			if ((l1h->flags & L1CTL_F_DONE))
 3164              		.loc 2 1407 0
 3165 0118 0130D5E5 		ldrb	r3, [r5, #1]	@ zero_extendqisi2
 3166 011c 010013E3 		tst	r3, #1
1408:apps/rssi/main.c **** 				pm_mode = PM_RANGE_RESULT;
 3167              		.loc 2 1408 0
 3168 0120 0330A013 		movne	r3, #3
 3169 0124 1C30C215 		strneb	r3, [r2, #28]
 3170              	.L277:
1410:apps/rssi/main.c **** 		l1s.tpu_offset_correction += 5000 / NUM_PM_UL;
 3171              		.loc 2 1410 0
 3172 0128 20339FE5 		ldr	r3, .L337+24
 3173 012c 442A93E5 		ldr	r2, [r3, #2628]
 3174 0130 7D2F82E2 		add	r2, r2, #500
 3175 0134 442A83E5 		str	r2, [r3, #2628]
1411:apps/rssi/main.c **** 		break;
 3176              		.loc 2 1411 0
 3177 0138 B90000EA 		b	.L268
 3178              	.LVL240:
 3179              	.L271:
1415:apps/rssi/main.c **** 		if (sb->result == 0)
 3180              		.loc 2 1415 0
 3181 013c 1230D5E5 		ldrb	r3, [r5, #18]	@ zero_extendqisi2
 3182 0140 000053E3 		cmp	r3, #0
1416:apps/rssi/main.c **** 			sync_result = "ok";
 3183              		.loc 2 1416 0
 3184 0144 08239F05 		ldreq	r2, .L337+28
 3185 0148 E8329FE5 		ldr	r3, .L337
1418:apps/rssi/main.c **** 			sync_result = "error";
 3186              		.loc 2 1418 0
 3187 014c 04239F15 		ldrne	r2, .L337+32
 3188 0150 242083E5 		str	r2, [r3, #36]
1419:apps/rssi/main.c **** 		bsic = sb->bsic;
 3189              		.loc 2 1419 0
 3190 0154 1320D5E5 		ldrb	r2, [r5, #19]	@ zero_extendqisi2
 3191 0158 FC329FE5 		ldr	r3, .L337+36
 3192 015c 0020C3E5 		strb	r2, [r3]
1420:apps/rssi/main.c **** 		break;
 3193              		.loc 2 1420 0
 3194 0160 AF0000EA 		b	.L268
 3195              	.L272:
1423:apps/rssi/main.c **** 		msg->l2h = dl->payload;
 3196              		.loc 2 1423 0
 3197 0164 103085E2 		add	r3, r5, #16
 3198 0168 143080E5 		str	r3, [r0, #20]
1424:apps/rssi/main.c **** 		rsl_dec_chan_nr(dl->chan_nr, &chan_type, &chan_ss, &chan_ts);
 3199              		.loc 2 1424 0
 3200 016c 03208DE2 		add	r2, sp, #3
 3201 0170 02308DE2 		add	r3, sp, #2
 3202 0174 0400D5E5 		ldrb	r0, [r5, #4]	@ zero_extendqisi2
 3203              	.LVL241:
 3204 0178 01108DE2 		add	r1, sp, #1
 3205 017c FEFFFFEB 		bl	rsl_dec_chan_nr
 3206              	.LVL242:
1426:apps/rssi/main.c **** 		power = dl->rx_level;
 3207              		.loc 2 1426 0
 3208 0180 D8329FE5 		ldr	r3, .L337+40
 3209 0184 0C20D5E5 		ldrb	r2, [r5, #12]	@ zero_extendqisi2
 3210 0188 0020C3E5 		strb	r2, [r3]
1427:apps/rssi/main.c **** 		if (dl->fire_crc >= 2) {
 3211              		.loc 2 1427 0
 3212 018c 0F30D5E5 		ldrb	r3, [r5, #15]	@ zero_extendqisi2
 3213 0190 010053E3 		cmp	r3, #1
 3214 0194 0130DDE5 		ldrb	r3, [sp, #1]	@ zero_extendqisi2
 3215 0198 0400009A 		bls	.L285
1428:apps/rssi/main.c **** 			if (chan_type == RSL_CHAN_BCCH)
 3216              		.loc 2 1428 0
 3217 019c 800053E3 		cmp	r3, #128
1429:apps/rssi/main.c **** 				si_new = 0x1ff; /* error frame indication */
 3218              		.loc 2 1429 0
 3219 01a0 90329F05 		ldreq	r3, .L337
 3220 01a4 FE2CE003 		mvneq	r2, #65024
 3221 01a8 B822C301 		streqh	r2, [r3, #40]	@ movhi
 3222 01ac 9C0000EA 		b	.L268
 3223              	.L285:
1433:apps/rssi/main.c **** 		switch (chan_type) {
 3224              		.loc 2 1433 0
 3225 01b0 800053E3 		cmp	r3, #128
 3226 01b4 0200000A 		beq	.L288
 3227 01b8 900053E3 		cmp	r3, #144
 3228 01bc 2800000A 		beq	.L289
 3229 01c0 620000EA 		b	.L287
 3230              	.L288:
1435:apps/rssi/main.c **** 			msg->l3h = msg->l2h;
 3231              		.loc 2 1435 0
 3232 01c4 145094E5 		ldr	r5, [r4, #20]
 3233              	.LVL243:
 3234 01c8 185084E5 		str	r5, [r4, #24]
 3235              	.LVL244:
 3236              	.LBB612:
 3237              	.LBB613:
1359:apps/rssi/main.c **** 	switch (sih->system_information) {
 3238              		.loc 2 1359 0
 3239 01cc 0230D5E5 		ldrb	r3, [r5, #2]	@ zero_extendqisi2
 3240 01d0 190053E3 		cmp	r3, #25
 3241 01d4 0F00000A 		beq	.L291
 3242 01d8 0600008A 		bhi	.L292
 3243 01dc 020053E3 		cmp	r3, #2
 3244 01e0 1200000A 		beq	.L293
 3245 01e4 030053E3 		cmp	r3, #3
 3246              	.LBB614:
 3247              	.LBB615:
 128:../../shared/libosmocore/include/osmocom/core/msgb.h **** 	return msgb->tail - (uint8_t *)msgb_l3(msgb);
 3248              		.loc 3 128 0
 3249 01e8 3C209405 		ldreq	r2, [r4, #60]
 3250              	.LBE615:
 3251              	.LBE614:
1370:apps/rssi/main.c **** 		memcpy(si_2ter, msgb_l3(msg), msgb_l3len(msg));
 3252              		.loc 2 1370 0
 3253 01ec 70029F05 		ldreq	r0, .L337+44
1359:apps/rssi/main.c **** 	switch (sih->system_information) {
 3254              		.loc 2 1359 0
 3255 01f0 1300000A 		beq	.L332
 3256 01f4 150000EA 		b	.L290
 3257              	.L292:
 3258 01f8 1B0053E3 		cmp	r3, #27
 3259 01fc 0E00000A 		beq	.L295
 3260 0200 0700003A 		bcc	.L296
 3261 0204 1C0053E3 		cmp	r3, #28
 3262              	.LBB616:
 3263              	.LBB617:
 128:../../shared/libosmocore/include/osmocom/core/msgb.h **** 	return msgb->tail - (uint8_t *)msgb_l3(msgb);
 3264              		.loc 3 128 0
 3265 0208 3C209405 		ldreq	r2, [r4, #60]
 3266              	.LBE617:
 3267              	.LBE616:
1376:apps/rssi/main.c **** 		memcpy(si_4, msgb_l3(msg), msgb_l3len(msg));
 3268              		.loc 2 1376 0
 3269 020c 54029F05 		ldreq	r0, .L337+48
1359:apps/rssi/main.c **** 	switch (sih->system_information) {
 3270              		.loc 2 1359 0
 3271 0210 0B00000A 		beq	.L332
 3272 0214 0D0000EA 		b	.L290
 3273              	.L291:
 3274              	.LVL245:
 3275              	.LBB618:
 3276              	.LBB619:
 128:../../shared/libosmocore/include/osmocom/core/msgb.h **** 	return msgb->tail - (uint8_t *)msgb_l3(msgb);
 3277              		.loc 3 128 0
 3278 0218 3C2094E5 		ldr	r2, [r4, #60]
